ccopy_reg
_reconstructor
p0
(clightgbm.sklearn
LGBMClassifier
p1
c__builtin__
object
p2
Ntp3
Rp4
(dp5
S'num_leaves'
p6
I31
sS'reg_alpha'
p7
F0.0
sS'n_jobs'
p8
I-1
sS'_evals_result'
p9
(dp10
S'valid_1'
p11
ccollections
defaultdict
p12
(c__builtin__
list
p13
tp14
Rp15
Vbinary_logloss
p16
(lp17
cnumpy.core.multiarray
scalar
p18
(cnumpy
dtype
p19
(S'f8'
p20
I0
I1
tp21
Rp22
(I3
S'<'
p23
NNNI-1
I-1
I0
tp24
bS"G\x03/pI'\xe6?"
p25
tp26
Rp27
ag18
(g22
S'1\xd4\x8a\xc0\x06%\xe6?'
p28
tp29
Rp30
ag18
(g22
S'\x86\xa9Ae3#\xe6?'
p31
tp32
Rp33
ag18
(g22
S'\xb23\xa1\x83\x87!\xe6?'
p34
tp35
Rp36
ag18
(g22
S'\x8d`\xbb\xbaK \xe6?'
p37
tp38
Rp39
ag18
(g22
S'\xe5C\t\xda[\x1f\xe6?'
p40
tp41
Rp42
ag18
(g22
S'4\n\xade\x82\x1e\xe6?'
p43
tp44
Rp45
ag18
(g22
S'~@\xd4Mj\x1d\xe6?'
p46
tp47
Rp48
ag18
(g22
S'x\xa4TV\x87\x1c\xe6?'
p49
tp50
Rp51
ag18
(g22
S'\xbdr\xbc\xf1\xfd\x1b\xe6?'
p52
tp53
Rp54
ag18
(g22
S'\xf9u>\x85S\x1b\xe6?'
p55
tp56
Rp57
ag18
(g22
S'\x8b_\xe9Z\xe3\x1a\xe6?'
p58
tp59
Rp60
ag18
(g22
S'\x1f\xe7\xb2B\xd6\x1a\xe6?'
p61
tp62
Rp63
ag18
(g22
S'b\xef\xf7"\xd6\x1a\xe6?'
p64
tp65
Rp66
ag18
(g22
S'^\xd1^!\xd9\x1a\xe6?'
p67
tp68
Rp69
ag18
(g22
S'.4\xf3\xa4\xe9\x1a\xe6?'
p70
tp71
Rp72
ag18
(g22
S'\x06\x9aG[\xda\x1a\xe6?'
p73
tp74
Rp75
ag18
(g22
S'\xd3\x86\xbdSs\x1a\xe6?'
p76
tp77
Rp78
ag18
(g22
S'\xd549\xc2\x9a\x1a\xe6?'
p79
tp80
Rp81
ag18
(g22
S'8^\xc5-y\x1a\xe6?'
p82
tp83
Rp84
ag18
(g22
S'O\xda\xb9\xefR\x1a\xe6?'
p85
tp86
Rp87
ag18
(g22
S'\xd5\x98E\xf9E\x1a\xe6?'
p88
tp89
Rp90
ag18
(g22
S'\xcai\x13MW\x1a\xe6?'
p91
tp92
Rp93
ag18
(g22
S'\xfcEYS \x1a\xe6?'
p94
tp95
Rp96
ag18
(g22
S'M\xb2`\xcb9\x1a\xe6?'
p97
tp98
Rp99
ag18
(g22
S'1_\xed\x14i\x1a\xe6?'
p100
tp101
Rp102
ag18
(g22
S'P%\xd3\xd8F\x1a\xe6?'
p103
tp104
Rp105
ag18
(g22
S'\xa6C\xc2b"\x1a\xe6?'
p106
tp107
Rp108
ag18
(g22
S"\xa7\xdf\x1c'\x86\x19\xe6?"
p109
tp110
Rp111
ag18
(g22
S"j/\xd3a'\x19\xe6?"
p112
tp113
Rp114
ag18
(g22
S'\x16\xc2\xa6ze\x19\xe6?'
p115
tp116
Rp117
ag18
(g22
S'\xd4,\x8b\xf9\x81\x19\xe6?'
p118
tp119
Rp120
ag18
(g22
S'\x98I\x9e\xfe\xbb\x19\xe6?'
p121
tp122
Rp123
ag18
(g22
S'nz\xf8@\x84\x19\xe6?'
p124
tp125
Rp126
ag18
(g22
S'2\x158M\x96\x19\xe6?'
p127
tp128
Rp129
ag18
(g22
S's\x83\x9e\xe9\xc6\x19\xe6?'
p130
tp131
Rp132
ag18
(g22
S'\xd6\xd2\x8b\xc6\xa4\x19\xe6?'
p133
tp134
Rp135
ag18
(g22
S'\x03\xe6\xf9\xd3(\x19\xe6?'
p136
tp137
Rp138
ag18
(g22
S'*\xab\x9f\xe6\xb5\x18\xe6?'
p139
tp140
Rp141
ag18
(g22
S'/Y\x9d\x1c\x84\x18\xe6?'
p142
tp143
Rp144
ag18
(g22
S'\xe3K\\\x0bO\x18\xe6?'
p145
tp146
Rp147
ag18
(g22
S'MVs\xa2\x89\x18\xe6?'
p148
tp149
Rp150
ag18
(g22
S'\xd1\xc6;\xb3\xab\x18\xe6?'
p151
tp152
Rp153
ag18
(g22
S'u\xfbz%\xac\x18\xe6?'
p154
tp155
Rp156
ag18
(g22
S't\xb1\xad(\xe8\x18\xe6?'
p157
tp158
Rp159
ag18
(g22
S'OaSp1\x19\xe6?'
p160
tp161
Rp162
ag18
(g22
S'WX_CY\x19\xe6?'
p163
tp164
Rp165
ag18
(g22
S'\xa3\x1eS\xfcR\x19\xe6?'
p166
tp167
Rp168
ag18
(g22
S'\x0c\xa6h6V\x19\xe6?'
p169
tp170
Rp171
ag18
(g22
S'\x0bx\x1d\x1b\xfa\x18\xe6?'
p172
tp173
Rp174
ag18
(g22
S'p \xcaFH\x19\xe6?'
p175
tp176
Rp177
assS'training'
p178
g12
(g13
tp179
Rp180
g16
(lp181
g18
(g22
S'\xab\xa0.\xf4\xbe%\xe6?'
p182
tp183
Rp184
ag18
(g22
S'\xeb\x99\xac\xc6\xb2"\xe6?'
p185
tp186
Rp187
ag18
(g22
S']\xbanz\xdb\x1f\xe6?'
p188
tp189
Rp190
ag18
(g22
S'\xe4Fx\xa8d\x1d\xe6?'
p191
tp192
Rp193
ag18
(g22
S'D\xa9\x8ei1\x1b\xe6?'
p194
tp195
Rp196
ag18
(g22
S'>\x16\xb7^\x16\x19\xe6?'
p197
tp198
Rp199
ag18
(g22
S'V\xf7\xa1\x88"\x17\xe6?'
p200
tp201
Rp202
ag18
(g22
S'\xd0b0\x9f\x15\x15\xe6?'
p203
tp204
Rp205
ag18
(g22
S'\x93\xcf\xa6\xa4&\x13\xe6?'
p206
tp207
Rp208
ag18
(g22
S'S\xab\xee\tZ\x11\xe6?'
p209
tp210
Rp211
ag18
(g22
S'\x075ah\xcd\x0f\xe6?'
p212
tp213
Rp214
ag18
(g22
S'%\x95\xf0\xb9P\x0e\xe6?'
p215
tp216
Rp217
ag18
(g22
S'\x03"nu\xbc\x0c\xe6?'
p218
tp219
Rp220
ag18
(g22
S'\x8a.\x0eUN\x0b\xe6?'
p221
tp222
Rp223
ag18
(g22
S'\xca\xab\x8a\xdc\xfc\t\xe6?'
p224
tp225
Rp226
ag18
(g22
S'/\x13{\x83\xa4\x08\xe6?'
p227
tp228
Rp229
ag18
(g22
S'*K\xfc ^\x07\xe6?'
p230
tp231
Rp232
ag18
(g22
S'\x80\xd4^\xb1\x10\x06\xe6?'
p233
tp234
Rp235
ag18
(g22
S'\xc0\x9e\x8cP\x00\x05\xe6?'
p236
tp237
Rp238
ag18
(g22
S'k[4\xe7\x08\x04\xe6?'
p239
tp240
Rp241
ag18
(g22
S'\x04\x81\x14\xfa\xdd\x02\xe6?'
p242
tp243
Rp244
ag18
(g22
S's\x10\n\x05\xd2\x01\xe6?'
p245
tp246
Rp247
ag18
(g22
S'\x12\x84\xaa\x89\xd2\x00\xe6?'
p248
tp249
Rp250
ag18
(g22
S'\xcb\xac\x9b2{\xff\xe5?'
p251
tp252
Rp253
ag18
(g22
S'\x04!\x8ed4\xfe\xe5?'
p254
tp255
Rp256
ag18
(g22
S'[L\xfa\x16!\xfd\xe5?'
p257
tp258
Rp259
ag18
(g22
S'f.)\x07M\xfc\xe5?'
p260
tp261
Rp262
ag18
(g22
S'e\x96J\xa28\xfb\xe5?'
p263
tp264
Rp265
ag18
(g22
S'v\xff\xd5\xf1\xe9\xf9\xe5?'
p266
tp267
Rp268
ag18
(g22
S'\xf5\xa4Qr\xdb\xf8\xe5?'
p269
tp270
Rp271
ag18
(g22
S'\xb5\x92\xdf\xe9 \xf8\xe5?'
p272
tp273
Rp274
ag18
(g22
S'X\x00\xc9\x83M\xf7\xe5?'
p275
tp276
Rp277
ag18
(g22
S'\xfb$\xa5\xa30\xf6\xe5?'
p278
tp279
Rp280
ag18
(g22
S'}p\x03\x00?\xf5\xe5?'
p281
tp282
Rp283
ag18
(g22
S'2\xe7]yS\xf4\xe5?'
p284
tp285
Rp286
ag18
(g22
S'Z\xa7\xa5@\x08\xf3\xe5?'
p287
tp288
Rp289
ag18
(g22
S'D\xe2\xba\xe6\xa3\xf1\xe5?'
p290
tp291
Rp292
ag18
(g22
S'\x98\x1a\x0cq\xa9\xf0\xe5?'
p293
tp294
Rp295
ag18
(g22
S'-G\xc3\x18o\xef\xe5?'
p296
tp297
Rp298
ag18
(g22
S'\xbe(\xc8f\x7f\xee\xe5?'
p299
tp300
Rp301
ag18
(g22
S'(\xbdrD_\xed\xe5?'
p302
tp303
Rp304
ag18
(g22
S']A\x19\xf8\xab\xec\xe5?'
p305
tp306
Rp307
ag18
(g22
S'\xe4\xc0\x8cx\xbc\xeb\xe5?'
p308
tp309
Rp310
ag18
(g22
S'}\x93\x1e\xcc/\xeb\xe5?'
p311
tp312
Rp313
ag18
(g22
S',\xc7`\x9b\\\xea\xe5?'
p314
tp315
Rp316
ag18
(g22
S'\x01\x93\xf8\x87U\xe9\xe5?'
p317
tp318
Rp319
ag18
(g22
S'\xc4k3\xf3\x9e\xe8\xe5?'
p320
tp321
Rp322
ag18
(g22
S'\xd1\x03\xa2\x99\xc7\xe7\xe5?'
p323
tp324
Rp325
ag18
(g22
S'G\xfa05\x80\xe6\xe5?'
p326
tp327
Rp328
ag18
(g22
S'\xf5\xf3\r]R\xe5\xe5?'
p329
tp330
Rp331
ag18
(g22
S'\xb7i \xbbo\xe4\xe5?'
p332
tp333
Rp334
asssS'_fobj'
p335
NsS'_Booster'
p336
g0
(clightgbm.basic
Booster
p337
g2
Ntp338
Rp339
(dp340
S'_Booster__is_predicted_cur_iter'
p341
(lp342
sS'_Booster__inner_predict_buffer'
p343
(lp344
sS'_Booster__attr'
p345
(dp346
sS'_Booster__higher_better_inner_eval'
p347
(lp348
I00
asS'best_iteration'
p349
I41
sS'_Booster__init_predictor'
p350
NsS'best_score'
p351
g12
(c__builtin__
dict
p352
tp353
Rp354
g11
(dp355
g16
g147
ssg178
(dp356
g16
g304
sssS'handle'
p357
Vtree\u000aversion=v2\u000anum_class=1\u000anum_tree_per_iteration=1\u000alabel_index=0\u000amax_feature_idx=4\u000aobjective=binary sigmoid:1\u000afeature_names=acousticness beat_strength bounciness danceability dyn_range_mean\u000afeature_infos=[0:0.99579644203186035] [0:0.95682758092880249] [0:0.95595282316207886] [0:0.98466408252716064] [0:23.68536376953125]\u000atree_sizes=2559 2587 2570 2578 2567 2565 2563 2598 2594 2568 2585 2571 2566 2538 2530 2547 2545 2528 2529 2565 2491 2542 2552 2585 2519 2509 2529 2553 2538 2533 2533 2494 2523 2536 2518 2567 2539 2514 2546 2503 2545\u000a\u000aTree=0\u000anum_leaves=31\u000anum_cat=0\u000asplit_feature=1 3 4 0 4 1 1 0 3 0 1 3 2 1 3 2 1 0 1 3 0 0 0 1 1 4 4 3 1 1\u000asplit_gain=54.6676 36.2989 38.6215 34.9192 61.6358 20.9203 17.3893 16.4375 15.0079 14.1168 10.5139 10.0635 10.0538 9.22843 9.32156 9.19829 8.57505 8.08841 13.4122 7.76526 12.4455 8.35034 9.98219 9.22698 8.6152 7.74749 11.2726 8.23751 7.63944 7.5511\u000athreshold=0.83289334177970897 0.83475843071937572 12.521732807159426 0.24563196301460269 9.0977001190185565 0.5970924198627473 0.83291989564895641 0.01338402181863785 0.18282539397478106 0.9596233367919923 0.72885578870773327 0.86146011948585521 0.89363476634025585 0.60274174809455883 0.89883625507354747 0.67520713806152355 0.16077270358800891 0.27413737773895269 0.75073793530464183 0.92062559723854076 0.0017830217257142069 0.00079877141979523014 0.0015362952253781261 0.66378101706504833 0.55989930033683788 9.0649685859680194 8.9940257072448748 0.74286851286888134 0.73699942231178295 0.59562668204307567\u000adecision_type=2 2 2 2 2 2 2 2 2 2 2 2 2 2 2 2 2 2 2 2 2 2 2 2 2 2 2 2 2 2\u000aleft_child=3 2 -2 4 8 9 -3 19 16 29 25 -8 -13 15 17 -7 -1 18 -15 21 -21 -6 23 24 -23 26 -10 -27 -25 -5\u000aright_child=1 6 -4 5 7 13 11 -9 10 -11 -12 12 -14 14 -16 -17 -18 -19 -20 20 -22 22 -24 28 -26 27 -28 -29 -30 -31\u000aleaf_value=-0.029752917100480974 0.10578314211387285 0.025481649410642661 0.0015881567310853384 0.068802465274448638 0.12018092788680085 0.057847648639349616 0.12549635570779377 0.077195168724008917 0.067414815095630701 0.038911719411836604 -0.027111450989587171 0.052386419139195603 0.081769956366023328 0.041218325568459925 0.038307828881407727 0.016223797113706938 0.062357562443912565 0.063464382169581376 0.12737060560059915 0.031334437061538746 0.11525119302723945 0.022309527859393635 0.092107810140877711 0.0041316965586190857 0.11936023940727891 0.031441621256338564 0.091465156502836098 0.098764866611657037 0.076235594230627035 0.10010251516734095\u000aleaf_count=100 166 505 1005 22339 374 444 111 26694 35556 632 47 1225 753 1203 766 408 68 8503 77 213 106 50 4099 141 137 421 798 88 101 313\u000ainternal_value=0 -0.236879 -0.529336 0.00860211 0.0346425 -0.0431957 -0.104857 0.0991137 -0.0208512 -0.0088045 -0.018135 -0.0242962 -0.0571998 -0.113432 -0.0972512 -0.313772 -0.617624 -0.0806053 -0.228914 0.201807 -0.100733 0.221495 0.197757 -0.0926858 0.241185 -0.0169289 -0.0134961 -0.262113 -0.350677 -0.000573832\u000ainternal_count=107443 3765 1171 103678 68993 34685 2594 31915 37078 23284 36910 2089 1978 11401 10549 852 168 9783 1280 5221 319 4902 4528 429 187 36863 36354 509 242 22652\u000ashrinkage=1\u000a\u000a\u000aTree=1\u000anum_leaves=31\u000anum_cat=0\u000asplit_feature=1 3 4 0 4 1 1 0 3 0 3 2 1 0 2 0 0 0 1 3 2 2 0 4 2 3 1 1 4 3\u000asplit_gain=44.2561 29.358 31.2305 28.2857 49.9498 16.9362 14.4441 13.3427 12.1453 11.7282 10.505 9.2566 8.50558 8.40952 7.51475 10.927 8.02854 7.683 7.46513 7.53985 7.43491 7.42522 7.19824 7.07021 10.1181 6.95768 6.93363 6.89228 8.40951 14.7882\u000athreshold=0.83289334177970897 0.83475843071937572 12.521732807159426 0.24563196301460269 9.0977001190185565 0.5970924198627473 0.83679428696632396 0.01338402181863785 0.18282539397478106 0.98158225417137157 0.86146011948585521 0.88649854063987743 0.72885578870773327 0.11136487126350404 0.62608593702316295 0.12788652628660205 0.19686558842658999 0.089115038514137282 0.60274174809455883 0.89883625507354747 0.67520713806152355 0.57677960395812999 0.00209633621852845 10.42536497116089 0.72780898213386547 0.64035686850547802 0.16077270358800891 0.6280096471309663 8.1203732490539569 0.65153133869171154\u000adecision_type=2 2 2 2 2 2 2 2 2 2 2 2 2 2 2 2 2 2 2 2 2 2 2 2 2 2 2 2 2 2\u000aleft_child=3 2 -2 4 8 9 11 25 26 -5 -8 -3 22 -12 15 17 -17 -9 20 23 -7 -19 -10 24 -20 -6 -1 28 -24 -30\u000aright_child=1 6 -4 5 7 18 10 14 12 -11 13 -13 -14 -15 -16 16 -18 21 19 -21 -22 -23 27 -25 -26 -27 -28 -29 29 -31\u000aleaf_value=-0.089044627646078012 0.032896892795471921 -0.035145028213120599 -0.060855367928363352 -0.00027124952755669954 0.045966102675730439 -0.010296266142516868 0.064949591459173561 0.017410146110288578 0.0059127816534668247 -0.039504336390064732 0.0082486483176998221 0.025679003098040429 -0.086666650574682785 -0.024218387621289826 0.0060148533270165715 -0.018713999437106561 0.022317529403667463 -0.039353198723917932 -0.010292483205536218 -0.027861421174885343 -0.047703913521704638 0.052402063800956356 -0.0041205625413140634 -0.0030397207601098155 -0.042571331026448445 0.016258477932733991 -0.0062398017960473172 -0.017161927230259687 0.014200416886340101 -0.0027208604326036359\u000aleaf_count=100 166 887 1005 22975 338 444 101 1251 4567 309 1030 113 47 463 24108 474 320 38 3278 766 408 503 21883 6064 441 4883 68 1247 3153 6013\u000ainternal_value=0 -0.213087 -0.47597 0.00774448 0.0311852 -0.0388696 -0.094342 0.089241 -0.0187641 -0.00792326 0.0239688 -0.282791 -0.0163199 -0.0182282 0.0711471 0.173682 -0.0217736 0.260284 -0.102052 -0.0874979 -0.28217 0.459571 -0.0152347 -0.0725248 -0.141211 0.18181 -0.555434 -0.0257504 -0.0198916 0.0309968\u000ainternal_count=107443 3765 1171 103678 68993 34685 2594 31915 37078 23284 1594 1000 36910 1493 26694 2586 794 1792 11401 10549 852 541 36863 9783 3719 5221 168 32296 31049 9166\u000ashrinkage=0.1\u000a\u000a\u000aTree=2\u000anum_leaves=31\u000anum_cat=0\u000asplit_feature=1 3 4 0 4 1 2 2 2 4 0 0 0 3 3 4 3 0 3 0 0 2 0 4 3 1 1 2 3 0\u000asplit_gain=35.8613 23.8246 25.3173 23.398 29.9038 11.7513 11.1964 10.7609 17.4989 16.4311 9.44354 9.15784 18.2768 8.24 8.22635 11.3686 11.2151 11.8312 8.14883 8.16259 7.81843 8.67839 7.47434 7.39095 9.14369 7.34291 7.32682 12.9628 7.16821 6.89642\u000athreshold=0.83289334177970897 0.83475843071937572 12.521732807159426 0.11136487126350404 8.9940257072448748 0.83291989564895641 0.63874259591102611 0.69984319806098949 0.78866109251976024 12.577472209930422 0.84976798295974743 0.0010496224858798089 0.0015362952253781261 0.93640562891960155 0.76039409637451183 8.7117424011230487 0.73713520169258129 0.012511151842772962 0.79854568839073192 0.10562146827578546 0.012511151842772962 0.78067457675933849 0.0054032197222113618 11.53793239593506 0.8753245770931245 0.74689286947250377 0.16077270358800891 0.26057183742523199 0.94679802656173717 0.074706885963678374\u000adecision_type=2 2 2 2 2 2 2 2 2 2 2 2 2 2 2 2 2 2 2 2 2 2 2 2 2 2 2 2 2 2\u000aleft_child=3 2 -2 4 14 -3 18 -8 11 29 26 -9 -13 -11 16 -16 -1 -18 19 -6 21 -14 -23 24 25 -22 -5 -28 -15 -10\u000aright_child=1 5 -4 10 6 -7 7 8 9 13 -12 12 20 28 15 -17 17 -19 -20 -21 23 22 -24 -25 -26 -27 27 -29 -30 -31\u000aleaf_value=-0.00024683173407550853 0.0296698672649547 -0.035866186839560089 -0.054819640366395229 -0.044446250404914719 0.017577002199114702 -0.0018638519866496382 0.00016477731495255857 0.062174431961471627 -0.011314004990782972 0.0092001874604261957 -0.012993505961351352 -0.054662769773759647 0.037404209408173184 0.075215228276485691 -0.011897559069494253 0.047569838308037453 0.023066025446032583 -0.029091545595861374 -0.090116804417367247 0.054191432837776513 0.0076794392972642372 0.0177508400242644 -0.10791643933226057 0.027490183463390334 -0.040362742688605124 0.029659786444571852 0.020750821379165611 -0.0018653363620230745 0.016103502490857052 0.019755332265369976\u000aleaf_count=25353 166 505 1005 159 3312 2089 5889 180 2646 3034 3054 142 1089 148 214 323 211 997 27 264 3033 49 31 1335 138 762 1036 49746 185 321\u000ainternal_value=0 -0.191856 -0.428828 0.00697207 0.0383214 -0.0849096 0.0921359 0.0727202 0.10469 0.029084 -0.0218624 0.175543 0.163372 0.124819 -0.00648655 0.238712 -0.0114444 -0.199815 0.194482 0.20276 0.179053 0.327263 -0.309461 0.146207 0.102524 0.120929 -0.0153816 -0.0140392 0.423761 -0.0795222\u000ainternal_count=107443 3765 1171 103678 49683 2594 22585 18982 13093 6334 53995 6759 6579 3367 27098 537 26561 1208 3603 3576 6437 1169 80 5268 3933 3795 50941 50782 333 2967\u000ashrinkage=0.1\u000a\u000a\u000aTree=3\u000anum_leaves=31\u000anum_cat=0\u000asplit_feature=1 2 4 0 4 1 4 3 0 0 1 1 0 3 1 4 2 0 3 1 1 3 0 0 0 3 3 0 3 3\u000asplit_gain=29.075 20.1181 29.8388 19.5695 35.6031 13.8276 9.54022 9.33661 9.05559 9.01606 7.07287 6.97268 6.46047 6.2901 14.6502 7.0573 7.53555 7.35891 15.3919 6.66639 6.51105 6.20392 9.88423 6.37186 7.38419 6.63921 7.34847 6.09536 6.19032 7.12275\u000athreshold=0.83289334177970897 0.88649854063987743 12.521732807159426 0.24563196301460269 9.0977001190185565 0.5970924198627473 12.577472209930422 0.18282539397478106 0.9596233367919923 0.01338402181863785 0.18740902841091159 0.70938393473625194 0.0084885261021554487 0.74452555179595958 0.59562668204307567 9.3649353981018084 0.57677960395812999 0.644382804632187 0.50311577320098888 0.48600308597087866 0.47676210105419164 0.92062559723854076 0.0017830217257142069 0.00079877141979523014 0.0015362952253781261 0.80246612429618847 0.83475843071937572 0.78877726197242748 0.80660387873649608 0.85779261589050304\u000adecision_type=2 2 2 2 2 2 2 2 2 2 2 2 2 2 2 2 2 2 2 2 2 2 2 2 2 2 2 2 2 2\u000aleft_child=3 2 -2 4 7 8 -4 -1 13 21 -9 -12 -8 14 15 17 -17 18 19 20 -5 23 -23 -6 25 -25 -27 -7 -29 -30\u000aright_child=1 -3 6 5 9 27 12 10 -10 -11 11 -13 -14 -15 -16 16 -18 -19 -20 -21 -22 22 -24 24 -26 26 -28 28 29 -31\u000aleaf_value=-0.04876162604491123 0.017615085298805112 0.0059289710983435493 -0.052135835278590004 0.01593688845624926 0.042038322651625042 -0.0077461861794927769 0.084773184062059997 0.025993141270873238 -0.024066723333404635 0.0059954243533627107 -0.0015634707308736749 -0.056154144306652387 -0.027214883307522204 -0.011098831792765345 0.052239218090408525 0.044515031990378429 0.0068186044065709772 -0.0067762580862013588 -0.0021930958532080432 -0.019770176902057717 0.1165421958578053 -0.036763490273487881 0.038130821873295168 0.017396910182979008 0.017408271387892863 -0.062712183823188064 0.0088752360049710721 -0.03326287892086071 0.076152923953817633 -0.041188796558280824\u000aleaf_count=168 501 1071 919 2795 374 10670 21 373 632 26694 36443 94 1253 1813 223 231 2630 5694 9026 214 26 213 106 193 4099 137 99 647 47 37\u000ainternal_value=0 -0.172818 -0.265089 0.00627807 0.0257819 -0.0324888 -0.365698 -0.0163792 -0.00452613 0.0748236 -0.0142394 -0.0170382 -0.253724 0.002069 0.0119046 0.0063898 0.0986221 -0.00847267 0.0195206 0.142808 0.168642 0.150998 -0.119581 0.168635 0.147897 -0.102186 -0.32713 -0.0895707 -0.266295 0.244624\u000ainternal_count=107443 3765 2694 103678 68993 34685 2193 37078 23284 31915 36910 36537 1274 22652 20839 20616 2861 17755 12061 3035 2821 5221 319 4902 4528 429 236 11401 731 84\u000ashrinkage=0.1\u000a\u000a\u000aTree=4\u000anum_leaves=31\u000anum_cat=0\u000asplit_feature=1 2 4 0 4 2 4 0 3 3 2 2 0 2 3 1 0 3 2 2 1 4 0 2 4 0 0 0 0 4\u000asplit_gain=23.584 16.3317 24.2175 16.2557 19.5945 9.19575 7.82188 7.09509 8.08327 7.25084 12.5329 13.2762 11.0267 10.6074 10.3422 6.54116 6.33089 8.09317 6.19046 13.3865 6.18448 6.0582 5.39726 10.0634 5.2717 5.24063 5.21155 5.17638 4.97567 12.4041\u000athreshold=0.83289334177970897 0.88649854063987743 12.521732807159426 0.11136487126350404 9.1339478492736834 0.63092416524887096 12.577472209930422 0.01338402181863785 0.56213179230690014 0.88814291357994091 0.78866109251976024 0.73700398206710827 0.066263329237699523 0.79929977655410778 0.8753245770931245 0.16077270358800891 0.089115038514137282 0.75373208522796642 0.6410011649131776 0.61656332015991222 0.6443847417831422 11.351444244384767 0.84976798295974743 0.26057183742523199 13.650350570678713 0.0084885261021554487 0.10932501032948495 0.55592805147171032 0.0072823287919163713 16.241972923278812\u000adecision_type=2 2 2 2 2 2 2 2 2 2 2 2 2 2 2 2 2 2 2 2 2 2 2 2 2 2 2 2 2 2\u000aleft_child=3 2 21 4 18 16 -4 8 -7 10 11 -9 -12 -14 -13 27 -6 -18 19 20 26 -2 23 -17 -24 -8 -1 -5 29 -3\u000aright_child=1 28 6 15 5 7 25 9 -10 -11 12 14 13 -15 -16 22 17 -19 -20 -21 -22 -23 24 -25 -26 -27 -28 -29 -30 -31\u000aleaf_value=-0.00045818852201739773 -0.016273513353703251 -0.040918303833322262 -0.047102225363538232 -0.068114128887635558 0.01500890052032286 0.09971943324498117 0.076476054115859865 0.00095321755090396927 0.01228200325679373 0.015072972826168311 -0.015360279122937651 0.020203901162312264 -0.032768867050999122 0.038112727464454051 -0.031881101796890299 0.018330958425292806 0.033216469441080906 0.12642081025463267 -0.021769655050444373 0.037481519173820532 -0.060218018307571688 0.030985772297291478 -0.0114388840609307 -0.0016057432067758826 0.040011460747074033 -0.024499538853174102 0.035767058195652075 -0.010896485673200165 0.013673906383336305 0.054447498905008232\u000aleaf_count=27063 160 218 919 104 1754 43 21 6935 4732 2092 2262 2672 115 321 162 1036 355 42 527 379 69 341 2864 49746 82 1253 160 163 780 73\u000ainternal_value=0 -0.155739 -0.238979 0.00565259 0.0317918 0.0773877 -0.32972 0.0635757 0.130675 0.0416328 0.0233302 0.0567025 -0.0974389 0.194179 0.172223 -0.018378 0.201738 0.430747 -0.002877 0.00121539 -0.00397004 0.158695 -0.0168265 -0.011994 -0.100071 -0.228416 -0.00245313 -0.331051 0.0533735 -0.170045\u000ainternal_count=107443 3765 2694 103678 49683 21485 2193 19334 4775 14559 12467 9769 2698 436 2834 53995 2151 397 28198 27671 27292 501 53728 50782 2946 1274 27223 267 1071 291\u000ashrinkage=0.1\u000a\u000a\u000aTree=5\u000anum_leaves=31\u000anum_cat=0\u000asplit_feature=1 0 4 2 4 3 1 3 2 4 3 4 0 0 1 0 4 4 2 4 2 4 3 4 1 1 2 3 0 0\u000asplit_gain=19.1375 13.5928 25.2861 13.268 19.6685 12.2263 12.7846 6.9109 17.7909 8.27017 6.86919 6.42596 6.10787 11.4672 9.98851 8.39475 6.36873 6.36504 6.24753 6.0307 5.90988 5.8882 7.51059 6.97325 7.17667 5.80873 5.67536 6.52918 6.21927 9.79975\u000athreshold=0.83289334177970897 0.24563196301460269 9.0977001190185565 0.88649854063987743 12.521732807159426 0.78280833363533031 0.71237859129905712 0.76746013760566723 0.63874259591102611 9.0035347938537615 0.18282539397478106 12.577472209930422 0.00090908905258402239 0.0015362952253781261 0.81107544898986828 0.01338402181863785 14.753562450408937 15.001832962036135 0.87417244911193859 14.148431777954103 0.64538258314132702 9.0649685859680194 0.75100424885749828 8.9940257072448748 0.74267539381980907 0.18740902841091159 0.70457190275192272 0.89883625507354747 0.35985554754734045 0.29677286744117742\u000adecision_type=2 2 2 2 2 2 2 2 2 2 2 2 2 2 2 2 2 2 2 2 2 2 2 2 2 2 2 2 2 2\u000aleft_child=1 2 10 4 -2 6 7 -3 9 -9 -1 -6 14 -14 -4 16 18 -18 19 -15 -10 23 -23 24 25 -12 -7 -28 29 -29\u000aright_child=3 5 12 -5 11 26 -8 8 20 -11 21 -13 13 15 -16 -17 17 -19 -20 -21 -22 22 -24 -25 -26 -27 27 28 -30 -31\u000aleaf_value=-0.041935383632852652 0.014304235413036227 -0.00085605198692635448 0.034310820463086721 0.0048068913344217843 -0.042591053029777518 -0.020178844255945915 -0.027001768722191202 0.030280098810066415 0.090731451666473173 -0.044232809434101863 0.023574623061264954 -0.020570208104955304 -0.024282103362906596 0.016668848345867349 -0.095496822470489684 0.0050932308937289448 -0.033635719398932028 0.059717527741664195 0.10112170697762644 -0.055667076081367686 0.025974455402129962 -0.029890733303307011 0.056634113012426435 0.017385537639914246 -0.1134847146741047 -0.0015437587865372452 -0.0037554371667679119 -0.049922925224652914 -0.032321787746789524 0.058613673079771528\u000aleaf_count=168 501 26207 491 1071 919 1762 731 80 61 234 373 1274 496 3909 25 26694 183 35 35 47 748 470 44 815 23 35185 4096 56 628 82\u000ainternal_value=0 0.00508987 0.02135 -0.140405 -0.215553 -0.0272162 -0.00895985 -0.00197214 0.151707 -0.252485 -0.0141732 -0.297448 0.0627042 0.0591655 0.279715 0.0640176 0.14731 -0.186491 0.165555 0.158104 0.308574 -0.0123422 -0.22499 -0.00933816 -0.0135261 -0.0128059 -0.104518 -0.0692668 -0.238739 0.145698\u000ainternal_count=107443 103678 68993 3765 2694 34685 28061 27330 1123 314 37078 2193 31915 31399 516 30903 4209 218 3991 3956 809 36910 514 36396 35581 35558 6624 4862 766 138\u000ashrinkage=0.1\u000a\u000a\u000aTree=6\u000anum_leaves=31\u000anum_cat=0\u000asplit_feature=1 0 4 2 4 2 3 4 3 0 2 2 3 0 2 3 0 0 3 2 3 1 3 1 3 4 0 1 3 0\u000asplit_gain=15.5321 11.3397 12.6816 10.7812 15.9785 7.59311 6.5089 9.2211 9.0616 9.61583 6.47771 12.3979 11.594 6.95716 8.79371 6.43183 6.06848 11.4213 5.82903 6.96608 6.48372 10.9371 9.01782 7.97194 7.47839 6.34246 6.28857 5.62642 9.12708 9.02628\u000athreshold=0.83289334177970897 0.11136487126350404 8.9940257072448748 0.88649854063987743 12.521732807159426 0.63092416524887096 0.76039409637451183 8.7117424011230487 0.73713520169258129 0.012511151842772962 0.69984319806098949 0.78866109251976024 0.88814291357994091 0.066263329237699523 0.7938976287841798 0.76298797130584728 0.0010496224858798089 0.0015362952253781261 0.82531312108039867 0.67520713806152355 0.79406493902206432 0.55989930033683788 0.78537398576736461 0.61129510402679454 0.8121851682662965 10.636404991149904 0.0039452533237636098 0.54648685455322277 0.63399246335029613 0.041404442861676223\u000adecision_type=2 2 2 2 2 2 2 2 2 2 2 2 2 2 2 2 2 2 2 2 2 2 2 2 2 2 2 2 2 2\u000aleft_child=1 2 6 4 -2 27 8 15 -1 -10 18 16 13 -13 -15 -8 -12 -18 20 -20 22 -22 -7 24 -23 -21 -25 28 -4 -30\u000aright_child=3 -3 5 -5 -6 10 7 -9 9 -11 11 12 -14 14 -16 -17 17 -19 19 25 21 23 -24 26 -26 -27 -28 -29 29 -31\u000aleaf_value=9.2381244429206308e-05 0.012887411252854806 -0.0015485490018882747 0.024654412532116338 0.0043271551503040314 -0.026840406716715962 -0.00027912660287298394 0.065217470726650684 0.04293053622849427 0.02118797571850374 -0.025847165411011348 0.049866381468686681 -0.010044161016577124 0.010552174235062979 -0.046900340224995805 0.029676442610971944 -0.026501530853431772 -0.043864409632420803 0.013545244187547802 0.14973195617919841 -0.016397368566000534 0.085035934717361372 -0.071644241472010969 0.034745878524625233 -0.067693444898708044 0.0029941102816138827 0.078732404806834397 -0.004710544633775752 0.026251338502314155 0.010888468496458151 -0.02905593968997541\u000aleaf_count=25353 501 53995 767 1071 2193 4882 37 323 211 997 180 3087 2811 72 364 177 142 6437 20 70 43 179 314 69 77 47 869 1200 582 373\u000ainternal_value=0 0.00458294 0.0264225 -0.126594 -0.194456 0.0615227 -0.00273866 0.215493 -0.00714595 -0.176427 0.047371 0.0731485 0.00948646 -0.0670196 0.169984 -0.106436 0.1329 0.123032 -0.00395267 0.404881 -0.0126624 -0.142984 0.0183774 -0.178694 -0.491927 0.218138 -0.0931823 0.156955 0.0835435 -0.0472111\u000ainternal_count=107443 103678 49683 3765 2694 22585 27098 537 26561 1208 19663 13093 6334 3523 436 214 6759 6579 6570 137 6433 1237 5196 1194 256 117 938 2922 1722 955\u000ashrinkage=0.1\u000a\u000a\u000aTree=7\u000anum_leaves=31\u000anum_cat=0\u000asplit_feature=1 0 4 1 4 2 4 1 0 0 2 3 4 0 3 4 0 0 3 3 3 0 2 2 1 1 0 4 3 0\u000asplit_gain=12.6025 10.0088 13.3373 12.4837 12.3357 11.8325 11.4488 10.9992 11.9696 12.8799 11.4374 9.89057 10.806 8.64802 7.80149 8.66444 8.13549 7.31219 7.12878 7.11872 7.87031 7.21119 6.82972 6.59598 6.58284 15.3592 6.53124 6.4528 6.45148 6.34966\u000athreshold=0.83289334177970897 0.48446905612945562 8.1505041122436541 0.72307014465332042 11.029746055603029 0.53477245569229137 10.676348686218263 0.47907264530658727 0.2493328005075455 0.26570999622344976 0.52871140837669384 0.83475843071937572 12.521732807159426 0.073244415223598494 0.61540728807449352 9.9348621368408221 0.1239200457930565 0.052733318880200393 0.87848868966102611 0.82903301715850841 0.84241345524787914 0.012511151842772962 0.70457190275192272 0.89363476634025585 0.5994127392768861 0.59562668204307567 0.7319605052471162 14.148431777954103 0.52901130914688121 0.98158225417137157\u000adecision_type=2 2 2 2 2 2 2 2 2 2 2 2 2 2 2 2 2 2 2 2 2 2 2 2 2 2 2 2 2 2\u000aleft_child=1 2 5 4 6 -1 22 14 10 -10 -9 12 -2 17 16 -16 -4 -7 -13 21 -21 27 24 -20 25 29 -6 -12 -11 -3\u000aright_child=11 3 7 -5 26 13 -8 8 9 28 19 18 -14 -15 15 -17 -18 -19 23 20 -22 -23 -24 -25 -26 -27 -28 -29 -30 -31\u000aleaf_value=-0.00096072214208636579 0.020732456109076137 -0.0018377632249826359 0.0090547399119773938 -0.026427912995723214 0.025036620214184631 -0.0089993420735016549 -0.022668926015610446 0.10169445604230731 -0.023323245169004931 -0.033761997483092422 0.012251648247480953 0.032181646974034341 -0.034737550271993045 -0.028071060738102272 0.0020241363218272534 -0.12248566153073992 0.032804068843678279 0.046031556696836631 -0.014549386163580525 0.022136127771190398 0.0062309583861290142 0.0010974244184730878 0.033383482051558534 0.0082222858931123109 -0.014518808881012672 0.046572541256258038 -0.0045202860080716068 -0.021767974904413432 -0.00017085456098324284 -0.03162151731162844\u000aleaf_count=30767 166 11247 1175 937 927 580 1251 48 1173 235 3790 197 1005 1153 888 23 1139 116 1660 1444 9301 25432 207 737 1794 261 442 238 8816 294\u000ainternal_value=0 0.00412776 0.0129546 -0.0397032 -0.0268845 -0.0189519 -0.0434217 0.032367 0.0251197 -0.0359938 0.0406844 -0.114115 -0.268391 -0.174404 0.14573 -0.0111553 0.207545 0.00172457 -0.0454689 0.0395163 0.0836658 0.0234199 -0.0268086 -0.0754991 -0.0323013 -0.0151304 0.15495 0.10235 -0.0104286 -0.0259665\u000ainternal_count=107443 103678 86318 17360 16423 32616 15054 53702 50477 10224 40253 3765 1171 1849 3225 911 2314 696 2594 40205 10745 29460 13803 2397 13596 11802 1369 4028 9051 11541\u000ashrinkage=0.1\u000a\u000a\u000aTree=8\u000anum_leaves=31\u000anum_cat=0\u000asplit_feature=1 0 3 1 4 4 3 4 2 3 3 3 0 4 3 4 2 1 1 4 2 3 0 0 0 0 0 1 0 1\u000asplit_gain=10.23 8.10785 11.2883 10.1155 9.99581 9.44446 8.0765 8.80212 8.0535 7.6654 6.84151 6.69293 14.9211 10.6549 8.37338 8.50426 10.3294 10.3452 8.1516 7.7476 7.34869 7.17629 6.25107 6.19587 13.3334 6.13403 7.00998 11.6566 10.9388 6.54958\u000athreshold=0.83289334177970897 0.48446905612945562 0.76039409637451183 0.72307014465332042 11.029746055603029 10.540777683258058 0.83475843071937572 12.521732807159426 0.70457190275192272 0.77549868822097789 0.76478016376495372 0.6611732840538026 0.033213503658771522 8.1505041122436541 0.75995609164237987 7.2657482624053964 0.5044115185737611 0.44992710649967199 0.53714537620544445 10.030993461608888 0.42248703539371496 0.68559566140174877 0.98158225417137157 0.011868887115269901 0.014133397024124862 0.2493328005075455 0.4691378921270371 0.69149425625801098 0.4625446498394013 0.67761611938476574\u000adecision_type=2 2 2 2 2 2 2 2 2 2 2 2 2 2 2 2 2 2 2 2 2 2 2 2 2 2 2 2 2 2\u000aleft_child=1 2 11 4 5 8 7 -2 10 -4 22 13 14 -1 15 -13 17 -17 -15 -18 -14 -21 -3 -20 -25 -11 28 -28 29 -27\u000aright_child=6 3 9 -5 -6 -7 -8 -9 -10 25 -12 12 20 18 -16 16 19 -19 23 21 -22 -23 -24 24 -26 26 27 -29 -30 -31\u000aleaf_value=-0.00062225559139016118 0.018708090788514636 -0.00082679619200125938 0.01317005958036604 -0.023791713220185532 0.01395300760569595 -0.019298501624429022 -0.0040944513765487286 -0.03142607825980083 0.050935611520459702 0.004780736841780109 -0.019600040710031838 -0.023533104349622639 -0.092908232908560998 0.012012140443814573 -0.024067657944901729 -0.021878822232493707 0.010874292535297786 0.062117460060907639 0.028485295406521744 -0.063510690104820175 -0.0059551241697829533 -0.0031007512215291168 -0.030215080233128279 -0.12379109084256067 -0.0011451389069794256 -0.014224514647235809 0.072679357011528251 -0.045311382315810604 -0.053805831929196579 0.0036541327327014928\u000aleaf_count=28039 166 12304 3654 937 1369 1443 2594 1005 113 18435 897 344 39 5608 368 76 4130 258 285 85 16650 1135 297 36 3395 1348 111 48 181 2093\u000ainternal_value=0 0.00371691 0.0116621 -0.0357343 -0.024196 -0.0390794 -0.102909 -0.242725 -0.0227597 0.0466926 -0.0272115 -0.00330465 -0.0301077 0.0132483 0.0521978 0.0701419 0.0886854 0.430043 0.0719261 0.0673064 -0.0615846 -0.073068 -0.0151893 -0.000865895 -0.0242944 0.032702 -0.0406726 0.370492 -0.0587171 -0.0335043\u000ainternal_count=107443 103678 86318 17360 16423 15054 3765 1171 13611 25870 13498 60448 23085 37363 6396 6028 5684 334 9324 5350 16689 1220 12601 3716 3431 22216 3781 159 3622 3441\u000ashrinkage=0.1\u000a\u000a\u000aTree=9\u000anum_leaves=31\u000anum_cat=0\u000asplit_feature=1 1 2 4 2 0 1 3 1 0 3 3 0 2 2 2 2 2 2 0 3 3 0 3 3 0 1 3 4 1\u000asplit_gain=8.30111 6.93449 7.66438 6.90407 11.5545 10.7137 12.4286 7.95607 7.43856 6.48398 8.28999 9.91469 7.83373 7.52854 8.4257 6.70727 6.30792 6.01004 11.2344 7.37169 6.91255 6.58566 20.8084 6.71498 5.96715 6.09189 10.5881 5.67381 5.37205 7.67623\u000athreshold=0.83289334177970897 0.85856425762176525 0.85800433158874523 8.4446077346801776 0.59202572703361522 0.24563196301460269 0.44791622459888464 0.6105346977710725 0.65976890921592724 0.26149520277976995 0.77925249934196483 0.59373435378074657 0.8311879336833955 0.62022915482521068 0.56737667322158825 0.54753983020782482 0.51790907979011547 0.56548291444778453 0.57419973611831676 0.058343647047877319 0.6630283296108247 0.55103772878646862 0.00079877141979523014 0.18282539397478106 0.6007712483406068 0.52542757987976085 0.60274174809455883 0.64035686850547802 8.0080833435058612 0.36676780879497534\u000adecision_type=2 2 2 2 2 2 2 2 2 2 2 2 2 2 2 2 2 2 2 2 2 2 2 2 2 2 2 2 2 2\u000aleft_child=3 2 -2 4 17 16 7 -7 -6 -8 11 12 -11 14 15 -14 -5 21 -19 -20 27 23 -23 -1 25 26 -13 -21 -25 -30\u000aright_child=1 -3 -4 5 8 6 9 -9 -10 10 -12 24 13 -15 -16 -17 -18 18 19 20 -22 22 -24 28 -26 -27 -28 -29 29 -31\u000aleaf_value=-0.023628027517846883 0.01032623506060645 0.0070022948555449457 -0.018214822439845891 0.063747169144161855 -0.039410235697897915 0.027554672146730214 -0.017132285828188015 -0.033155194217859819 0.0062237366589529214 -0.0066188832483798686 -0.0078434668936871732 0.14219017712950943 -0.1054047932710563 0.0081160026760221972 -0.099806430136518534 0.030160802669313466 0.0035679326772726366 0.031843957379378077 0.015397483249486444 -0.012685921685915702 -0.026998721704035923 0.031943796466983691 -0.0050485789791726073 0.00069710648497107932 0.0035281879206501467 -0.0061301577003352974 -0.0043878729320271708 0.095556635053863442 0.082135762132502246 0.010795159081206072\u000aleaf_count=437 448 821 2496 70 516 797 1250 97 198 1719 6469 47 21 78 113 48 39142 628 511 42 475 627 21349 19315 8448 54 34 36 64 1093\u000ainternal_value=0 -0.0927676 -0.138526 0.00334707 -0.0151853 0.0177512 -0.0209889 0.209585 -0.267695 -0.0322436 -0.0220342 0.0125166 -0.115168 -0.438795 -0.661674 -0.110849 0.0367548 -0.0111398 0.105871 -0.0192771 -0.179349 -0.0157536 -0.0399375 0.0096723 0.0419507 0.459317 0.80636 0.372657 0.0149015 0.147403\u000ainternal_count=107443 3765 2944 103678 45291 58387 19175 894 714 18281 17031 10562 1979 260 182 69 39212 44577 1692 1064 553 42885 21976 20909 8583 135 81 78 20472 1157\u000ashrinkage=0.1\u000a\u000a\u000aTree=10\u000anum_leaves=31\u000anum_cat=0\u000asplit_feature=1 3 4 0 3 1 4 1 1 0 0 1 4 2 3 0 4 3 1 0 4 0 1 3 0 0 0 3 1 2\u000asplit_gain=6.73366 6.22962 6.37984 5.92741 8.66609 7.92115 8.78689 7.12056 11.0616 6.70213 10.7863 7.67124 5.81484 5.98225 5.66867 11.2133 9.24592 6.82912 6.67869 7.96203 7.20551 5.85777 5.77158 5.63828 5.94738 5.63309 6.07138 5.56021 6.0898 6.7398\u000athreshold=0.83289334177970897 0.83475843071937572 12.521732807159426 0.48446905612945562 0.76039409637451183 0.71237859129905712 11.029746055603029 0.59854823350906383 0.59562668204307567 0.4691378921270371 0.4625446498394013 0.69953778386116039 8.4654502868652362 0.65676012635231029 0.66499057412147533 0.033213503658771522 8.1505041122436541 0.75995609164237987 0.4409646093845368 0.014726384077221157 10.030993461608888 0.43663850426673895 0.53714537620544445 0.68559566140174877 0.027766433544456962 0.7319605052471162 0.51493552327156078 0.65622317790985119 0.58257028460502636 0.65300500392913829\u000adecision_type=2 2 2 2 2 2 2 2 2 2 2 2 2 2 2 2 2 2 2 2 2 2 2 2 2 2 2 2 2 2\u000aleft_child=3 2 -2 4 14 6 7 8 -5 10 -6 -11 -9 -14 16 17 21 18 19 -16 -20 -1 -18 -22 -25 26 -8 -24 -29 -30\u000aright_child=1 -3 -4 5 9 -7 25 12 -10 11 -12 -13 13 -15 15 -17 22 -19 20 -21 23 -23 27 24 -26 -27 -28 28 29 -31\u000aleaf_value=-0.0011037729537863752 0.015951434718437719 -0.0029294435889902926 -0.026822973653981508 -0.002035714425815465 0.004007969535439769 -0.019769604041749288 -0.025855521455192196 -0.044491736372546303 0.040204863764193549 0.040627465511449114 -0.044465549682012454 -0.047278251251097261 0.0058444763842214129 -0.015022102339305822 -0.062619739634574775 -0.0056275852077158472 0.010580946056090593 -0.022017147210073439 0.010812435073984775 0.069838568661865538 -0.057968965918211102 0.01768301177952904 -0.0026706486104213015 -0.0061206708693595574 0.063875827443176575 -0.0052462707900323121 0.028469973420256131 0.029597032066798076 -0.058067321528128518 0.028425192946710465\u000aleaf_count=27792 166 2594 1005 11658 25301 1068 92 205 256 339 185 45 742 2122 104 16183 5720 368 4474 22 80 681 3285 1083 51 423 794 460 77 68\u000ainternal_value=0 -0.0836047 -0.206975 0.00301389 0.00980823 -0.0307208 -0.0197784 -0.033509 -0.011364 0.0405104 0.0365477 0.30305 -0.119437 -0.0961371 -0.00330481 -0.0286071 0.0115486 0.0440318 0.0608274 -0.394785 0.0709579 -0.00654548 0.0653143 -0.0660039 -0.0296749 0.137508 0.228281 0.0057573 0.182588 -0.174915\u000ainternal_count=107443 3765 1171 103678 86318 17360 16292 14983 11914 25870 25486 384 3069 2864 60448 22365 38083 6182 5814 126 5688 28473 9610 1214 1134 1309 886 3890 605 145\u000ashrinkage=0.1\u000a\u000a\u000aTree=11\u000anum_leaves=31\u000anum_cat=0\u000asplit_feature=2 4 3 3 1 3 4 4 3 4 3 0 1 2 2 0 2 0 4 3 4 2 0 0 2 1 2 4 0 1\u000asplit_gain=5.66072 8.28169 6.71735 9.58896 9.39578 8.73396 7.06464 7.98585 6.0729 6.36995 5.71161 7.31576 6.42719 5.63457 5.54284 4.90875 4.87087 7.53564 6.49301 5.26954 5.15889 6.556 8.04364 7.77634 6.69456 7.03067 6.64195 6.5664 6.3532 8.88905\u000athreshold=0.85311853885650646 15.033645629882814 0.92176219820976268 0.91212844848632824 0.81107544898986828 0.88814291357994091 13.476926326751711 13.331372261047365 0.84241345524787914 12.651237487792971 0.89756983518600475 0.18310170620679858 0.70337828993797313 0.84951961040496837 0.84147033095359813 0.84976798295974743 0.83364838361740123 0.012914285995066168 12.364237785339357 0.77277135848999035 8.8933501243591326 0.5715160369873048 0.2493328005075455 0.26149520277976995 0.58173298835754406 0.49745464324951177 0.75255605578422557 8.9112477302551287 0.010604942683130504 0.55854302644729625\u000adecision_type=2 2 2 2 2 2 2 2 2 2 2 2 2 2 2 2 2 2 2 2 2 2 2 2 2 2 2 2 2 2\u000aleft_child=2 8 3 5 -4 13 7 14 -2 -10 12 -12 -7 15 -5 16 18 -18 20 -19 -1 -22 24 26 25 -23 -24 -26 29 -29\u000aright_child=1 -3 4 6 -6 10 -8 -9 9 -11 11 -13 -14 -15 -16 -17 17 19 -20 -21 21 22 23 -25 27 -27 -28 28 -30 -31\u000aleaf_value=-0.00081538824249017443 -0.024179538941555286 0.0097846233496463528 0.023891931158434316 -0.01985515800410062 -0.022287623015168484 0.064409591810620545 0.038876696287134777 -0.067708358056273343 0.064349308960873583 -0.0074170966465175615 0.012613078275194221 -0.029327010274820271 0.018135764994863052 -0.08149780236836042 0.053228995241940469 -0.0078049937104430105 0.082515242896258653 0.062160645617138494 -0.0086613800148664395 0.0036343725536803584 0.015688982604280304 0.0034154329023826646 -0.025109305623111661 -0.0011181473475105866 0.035266753085595202 -0.041146811198900929 0.066512745487012012 0.04351617850594864 0.0027271391942881129 0.008677477893241017\u000aleaf_count=50023 1054 969 960 801 217 145 79 140 51 2723 784 212 711 34 44 3038 65 70 3174 532 1401 299 777 12033 270 271 33 335 23587 2611\u000ainternal_value=0 -0.0675286 0.00313692 0.0013944 0.153723 0.00339747 -0.187768 -0.233978 -0.109749 -0.0610757 0.139831 0.0365896 0.259946 0.000841088 -0.160565 0.00112206 0.00364523 0.174671 0.00244927 0.104618 0.00553209 0.0220235 0.0173341 -0.0239573 0.0367796 -0.178122 -0.213735 0.0413537 0.0381907 0.126327\u000ainternal_count=107443 4797 102646 101469 1177 100405 1064 985 3828 2774 1852 996 856 98553 845 98519 95481 667 94814 602 91640 41617 40216 12843 27373 570 810 26803 26533 2946\u000ashrinkage=0.1\u000a\u000a\u000aTree=12\u000anum_leaves=31\u000anum_cat=0\u000asplit_feature=0 3 1 1 4 2 3 1 0 4 1 4 3 1 4 4 3 3 3 0 1 1 3 0 2 1 0 4 2 1\u000asplit_gain=4.7379 9.22848 5.21884 5.37657 6.54152 10.1923 6.95973 8.10291 5.29657 4.94054 5.06753 7.44348 5.29576 4.87901 5.17141 8.8502 7.76236 12.9168 7.86855 7.43101 9.31427 8.73899 8.63632 7.63994 7.61962 7.04528 6.85394 6.59711 8.9035 7.37908\u000athreshold=0.00090908905258402239 0.54087349772453319 0.31541128456592565 0.37810611724853521 7.5912439823150644 0.60151758790016185 0.6105346977710725 0.3971507996320725 0.00014707149239256981 8.1505041122436541 0.36385503411293035 5.6444225311279306 0.53189769387245189 0.83289334177970897 8.1203732490539569 7.9859313964843759 0.54838895797729503 0.59373435378074657 0.48698732256889349 0.2493328005075455 0.58257028460502636 0.56994131207466137 0.76625269651412975 0.0015362952253781261 0.6121148169040681 0.62527886033058178 0.25756804645061498 7.9235575199127206 0.59202572703361522 0.56710320711135875\u000adecision_type=2 2 2 2 2 2 2 2 2 2 2 2 2 2 2 2 2 2 2 2 2 2 2 2 2 2 2 2 2 2\u000aleft_child=1 9 -3 8 6 -6 -5 -8 -4 10 11 12 -1 14 15 27 18 -18 -17 23 21 22 -21 -16 25 -22 -26 -2 29 -29\u000aright_child=13 2 3 4 5 -7 7 -9 -10 -11 -12 -13 -14 -15 19 16 17 -19 -20 20 24 -23 -24 -25 26 -27 -28 28 -30 -31\u000aleaf_value=-0.0019319578249882058 -0.0015088594214435263 0.075882411840113462 0.029976711615959557 0.013918560833124547 -0.024540224555526562 0.025068209791179116 0.17409723150057516 0.051589734412551949 -0.037617325959958821 0.091877661564234506 -0.026934615739916179 0.032185933825255982 -0.08677453105621788 -0.0074305645722710506 -0.020631330326911515 -0.014264903187362675 -0.063143047519543624 -0.012488607315464993 0.051088104597681289 0.0023784080143686567 -0.020092298388472447 0.022625860871555863 -0.028870456921189183 0.0029621588077632212 -0.026531896739176393 -0.091667440327507788 -0.0033214589204491139 0.0078310989745009243 -0.089305506750512298 0.048777826190355027\u000aleaf_count=1640 33480 62 72 210 235 579 24 221 131 23 287 273 30 3711 558 156 226 1857 140 7773 565 820 371 41553 535 61 10969 597 31 253\u000ainternal_value=0 0.0696522 0.190013 0.165875 0.214646 0.106087 0.40656 0.636019 -0.136457 -0.0117025 -0.0211444 0.0155304 -0.0345672 -0.00253183 9.89946e-05 -0.0187713 -0.13678 -0.179845 0.166482 0.0110939 -0.019551 0.0293755 0.00954013 0.0264909 -0.0556976 -0.270664 -0.0439952 -0.0105984 0.160603 0.19913\u000ainternal_count=107443 3787 1534 1472 1269 814 455 245 203 2253 2230 1943 1670 103656 99945 36740 2379 2083 296 63205 21094 8964 8144 42111 12130 626 11504 34361 881 850\u000ashrinkage=0.1\u000a\u000a\u000aTree=13\u000anum_leaves=31\u000anum_cat=0\u000asplit_feature=3 3 0 4 4 3 1 1 1 3 1 4 3 4 1 3 2 3 4 2 3 1 4 3 0 4 4 0 4 0\u000asplit_gain=4.23475 5.18718 8.46958 8.28562 8.28348 6.8777 8.2521 6.03385 5.97631 5.5213 7.2746 6.42419 5.60206 5.74859 6.48734 5.27833 6.44036 8.75382 5.24058 6.38965 5.30678 5.15404 5.09131 4.93112 4.97272 4.92191 13.9001 9.8159 5.98688 6.60384\u000athreshold=0.18282539397478106 0.41301837563514715 0.00079877141979523014 6.6368854045867929 6.5788738727569589 0.54087349772453319 0.8068273961544038 0.5173502266407014 0.3032155334949494 0.39223228394985205 0.42359472811222082 7.5197191238403329 0.38576543331146246 6.1834175586700448 0.48976652324199682 0.5105765461921693 0.27833011746406561 0.49968713521957403 5.9125089645385751 0.36663888394832617 0.43228562176227575 0.40265309810638433 7.944568634033204 0.46562187373638159 2.9464789804478645e-05 12.463147163391115 12.651237487792971 0.022397408261895183 12.83422899246216 0.014133397024124862\u000adecision_type=2 2 2 2 2 2 2 2 2 2 2 2 2 2 2 2 2 2 2 2 2 2 2 2 2 2 2 2 2 2\u000aleft_child=-1 9 5 4 -4 8 -7 -6 15 12 -11 -12 22 -14 21 16 17 -3 23 -20 -21 -15 -2 -10 -25 -5 27 -27 29 -28\u000aright_child=1 2 3 25 7 6 -8 -9 18 10 11 -13 13 14 -16 -17 -18 -19 19 20 -22 -23 -24 24 -26 26 28 -29 -30 -31\u000aleaf_value=-0.019616244814883665 0.0040646307464762554 0.010399451420384341 -0.0041511635018796587 0.00070895177776924808 -0.030126016510078148 0.025218239258408361 -0.062304249893795294 0.074088953071814678 0.013382134878074084 0.024079441268730489 -0.054122519646607886 0.016950664328104326 -0.042360137731859551 -0.0032931636874509 -0.095824340558179524 0.060673764119677502 0.11512757892750856 -0.082205008720617367 0.058511856824115804 -0.096852357190722174 0.0012299150896936948 0.072473816764908203 0.086973589375586913 -0.13522517611672411 -0.037093547067619199 0.05023609938916971 -0.018874248036448511 -0.021027878687605306 -0.0018633384212503299 0.02778765724760375\u000aleaf_count=441 5042 446 11621 74780 670 1187 45 23 71 1056 98 106 215 135 23 84 21 45 69 26 147 49 30 23 204 81 157 2093 7907 548\u000ainternal_value=0 0.000815133 -0.00280842 -0.00566777 -0.0541847 0.11576 0.220062 -0.266672 0.00366815 0.0544937 0.173963 -0.171963 0.0270889 -0.194437 0.0435935 0.141795 0.0655143 0.0191194 -0.148924 0.070202 -0.135605 0.168861 0.0455242 -0.326447 -0.4704 0.00133314 -0.0387763 -0.183392 -0.00285069 0.174154\u000ainternal_count=107443 107002 100248 97880 12314 2368 1232 693 1136 6754 1260 204 5494 422 207 596 512 491 540 242 173 184 5072 298 227 85566 10786 2174 8612 705\u000ashrinkage=0.1\u000a\u000a\u000aTree=14\u000anum_leaves=31\u000anum_cat=0\u000asplit_feature=1 2 0 3 3 0 0 0 3 4 0 1 2 2 2 2 3 3 2 4 3 4 3 2 3 3 1 0 4 2\u000asplit_gain=3.83863 4.38934 7.82193 4.28924 5.84303 4.25482 5.99327 3.61248 7.29215 9.59778 8.35513 6.08088 10.1826 14.1188 5.57965 8.50971 5.98505 4.85748 4.4593 6.59109 6.78843 4.59478 4.13181 4.97533 6.705 4.48443 4.29084 4.7971 4.24515 5.32315\u000athreshold=0.16077270358800891 0.13519970327615741 0.48446905612945562 0.22833557426929477 0.2570978999137879 0.0010496224858798089 0.007960146293044092 0.55263695120811474 0.85003200173378002 10.8632869720459 0.7319605052471162 0.61226293444633495 0.64922282099723827 0.63874259591102611 0.79122036695480358 0.77488142251968395 0.80660387873649608 0.5891992747783662 0.65676012635231029 9.6407041549682635 0.64035686850547802 8.4654502868652362 0.76625269651412975 0.62171521782875072 0.50311577320098888 0.75373208522796642 0.56710320711135875 0.7319605052471162 9.6916694641113299 0.59906816482543956\u000adecision_type=2 2 2 2 2 2 2 2 2 2 2 2 2 2 2 2 2 2 2 2 2 2 2 2 2 2 2 2 2 2\u000aleft_child=3 2 -2 5 -5 -1 -7 -3 9 11 -11 12 13 22 15 -12 -16 -14 21 -20 -21 -13 23 25 -25 28 27 -24 -9 -30\u000aright_child=1 7 -4 4 -6 6 -8 8 -10 10 14 18 17 -15 16 -17 -18 -19 19 20 -22 -23 26 24 -26 -27 -28 -29 29 -31\u000aleaf_value=-0.089652985756783488 0.13196565388351605 0.00049661201970615989 -0.0091693261140995373 0.072754882775184271 -0.019619815639834629 0.084231086731852048 -0.029888246445930852 -0.0025277181947553824 -0.020095902404969914 0.026978455464680275 -0.007588367766817085 -0.047415127113736244 -0.017263768473847193 -0.056926058014999961 0.010434898368013206 -0.12004865387439921 0.13711201210444407 0.033173472189794641 -0.058287127179980795 -0.10285497832412485 -0.0089593672876720053 0.0058331247142297225 -0.15721078708166733 0.12464521280093886 0.013472874315285066 0.062432692211336016 -0.013440346831807962 -0.032313540873910557 -0.12989091608448297 -0.021268911898898745\u000aleaf_count=43 28 93040 36 43 76 20 259 8934 931 815 379 77 92 194 59 29 20 452 198 33 467 414 20 23 390 42 146 32 21 130\u000ainternal_value=0 0.00077597 0.525027 -0.186895 0.137744 -0.307626 -0.217053 0.00046199 -0.0296332 -0.0173647 0.14569 -0.0355463 -0.0201481 -0.0347525 -0.0616138 -0.155819 0.425392 0.246415 -0.171128 -0.2739 -0.151562 -0.0250621 -0.0241004 -0.0181587 0.196636 -0.0278837 -0.310115 -0.803639 -0.0309011 -0.363696\u000ainternal_count=107443 107002 64 441 119 322 279 106938 13898 12967 1302 11665 10476 9932 487 408 79 544 1189 698 500 491 9738 9540 413 9127 198 52 9085 151\u000ashrinkage=0.1\u000a\u000a\u000aTree=15\u000anum_leaves=31\u000anum_cat=0\u000asplit_feature=4 2 3 1 3 3 4 4 0 0 4 3 0 4 4 1 3 1 4 3 3 0 1 1 0 2 2 1 3 0\u000asplit_gain=3.40219 6.68772 5.34042 7.72462 6.70927 6.83468 6.19134 6.80424 5.09648 5.23191 4.7194 4.6073 5.6948 7.26978 6.01429 5.28086 4.40426 6.54541 5.25099 4.91688 9.28718 9.06096 7.11602 6.7585 7.2109 6.25115 5.88158 8.58068 5.59517 5.22864\u000athreshold=15.373113155364992 0.85311853885650646 0.92176219820976268 0.81107544898986828 0.91212844848632824 0.88814291357994091 13.476926326751711 13.331372261047365 0.35985554754734045 0.53422003984451305 14.892355442047121 0.89756983518600475 0.071604188531637206 12.24683713912964 12.463147163391115 0.70337828993797313 0.88394656777381908 0.80090060830116283 13.057722568511965 0.82903301715850841 0.84536564350128185 0.30231842398643499 0.78478747606277477 0.76812714338302623 0.28553630411624914 0.83364838361740123 0.80482953786849987 0.66701155900955211 0.83161330223083507 0.56939944624900829\u000adecision_type=2 2 2 2 2 2 2 2 2 2 2 2 2 2 2 2 2 2 2 2 2 2 2 2 2 2 2 2 2 2\u000aleft_child=1 2 4 8 5 10 7 -6 -4 -10 16 15 -13 -14 -15 -7 19 18 -18 -1 22 23 26 24 -22 -24 27 -21 -28 -23\u000aright_child=-2 -3 3 -5 6 11 -8 -9 9 -11 -12 12 13 14 -16 -17 17 -19 -20 20 21 29 25 -25 -26 -27 28 -29 -30 -31\u000aleaf_value=-0.00024322804299256492 0.011758973691334293 -0.0080905712810329083 0.028681866556019803 -0.018466725254703924 -0.013278929112867523 0.058013385095230956 0.03863583420150616 -0.060913317612253617 -0.11655343441678299 0.014733622183178731 -0.060929432065052518 0.018869989914649696 -0.055200955567112936 0.055216535064961061 -0.0098328991688137485 0.015991840309826068 -0.013429372662221276 0.051077781876226663 -0.084213808658244682 0.026752754809017239 0.008652267296539895 -0.019616927256363537 0.089616862009821122 -0.0082462133001890616 0.11060384116713212 0.0036216324770831014 -0.0086314479535782654 -0.001317887131705356 0.062299167800355541 0.018959390212402602\u000aleaf_count=89402 980 4098 720 217 845 145 78 140 20 31 51 478 118 69 331 711 976 61 44 700 3257 1070 94 1164 28 54 61 1171 167 162\u000ainternal_value=0 -0.00107254 0.00208506 0.148884 0.000659583 0.00233578 -0.157704 -0.200691 0.243243 -0.368107 7.37242e-05 0.123143 0.030347 -0.115097 0.0140035 0.231147 0.000389182 -0.126682 -0.164745 0.00180167 0.0496541 0.00654515 0.158862 0.0487142 0.0952527 0.585046 0.128956 0.0918768 0.433 -0.145374\u000ainternal_count=107443 106463 102365 988 101377 100314 1063 985 771 51 98462 1852 996 518 400 856 98411 1081 1020 97330 7928 5681 2247 4449 3285 148 2099 1871 228 1232\u000ashrinkage=0.1\u000a\u000a\u000aTree=16\u000anum_leaves=31\u000anum_cat=0\u000asplit_feature=0 1 2 3 0 4 4 1 3 3 2 3 1 0 2 1 3 0 1 2 2 1 3 1 4 0 4 0 4 2\u000asplit_gain=3.35492 5.01274 6.72892 3.4096 6.74277 6.73995 6.70639 6.18704 7.26454 5.63024 6.75464 5.53117 6.54649 5.51287 6.27102 7.46609 15.2339 5.40116 4.91973 4.85356 5.27482 4.83985 4.82883 6.98373 4.66942 4.33137 4.62688 4.29753 5.18021 4.71198\u000athreshold=0.98158225417137157 0.35090182721614843 0.31894859671592718 0.41301837563514715 0.00079877141979523014 6.6368854045867929 6.5788738727569589 0.31205151975154882 0.5858876407146455 0.39223228394985205 0.35510684549808508 0.54087349772453319 0.8068273961544038 0.00023216216504806655 0.28375358879566198 0.18740902841091159 0.22833557426929477 0.78877726197242748 0.5173502266407014 0.37683585286140447 0.3703895658254624 0.3032155334949494 0.34048724174499517 0.22591157257556918 4.8862321376800546 0.30688653886318212 7.7302527427673349 0.77863624691963207 3.9433091878890996 0.30995211005210882\u000adecision_type=2 2 2 2 2 2 2 2 2 2 2 2 2 2 2 2 2 2 2 2 2 2 2 2 2 2 2 2 2 2\u000aleft_child=3 2 -2 9 11 6 -6 8 -7 13 24 21 -13 14 15 16 -1 19 -8 20 -12 -5 -17 -24 -11 -21 -27 28 -15 -30\u000aright_child=1 -3 -4 4 5 7 18 -9 -10 10 17 12 -14 27 -16 22 -18 -19 -20 25 -22 -23 23 -25 -26 26 -28 -29 29 -31\u000aleaf_value=-0.077889689490282354 -0.017339476548385007 0.0036116782921428261 -0.10469367098022189 0.012739222022512499 -0.0037275072378602976 0.092509060354472206 -0.027100915678696515 8.7677032096092027e-05 -0.038057687817399606 0.0021029572703984843 -0.022724254812574503 0.022590906917513528 -0.055367076565169419 -0.024651143588121833 0.040940771799830113 -0.019850657045329016 0.066286053054227953 0.046111375547938434 0.06713523360134932 0.020562212891192193 -0.13529179929701893 -0.013430553831791529 -0.11836615197167995 -0.031285601640040905 0.039542622904006307 -0.040933519979351192 0.039522027059167249 -0.0078065520435636575 0.013086643732628906 -0.0013501429207498615\u000aleaf_count=46 111 175 52 596 11606 59 670 85327 24 181 69 1187 45 206 64 183 83 86 23 211 22 540 64 87 510 127 37 1048 2620 1384\u000ainternal_value=0 -0.199329 -0.452287 0.000637642 -0.00236 -0.00491415 -0.0486934 0.00140938 0.547468 0.0432586 0.165489 0.103519 0.197224 0.0169916 -0.178323 -0.259548 0.151035 0.000443064 -0.239837 -0.0846375 -0.499355 0.00301386 -0.417106 -0.681954 0.297426 0.0159737 -0.228001 0.0365461 0.0651241 0.080952\u000ainternal_count=107443 338 163 107105 100077 97709 12299 85410 83 7028 1243 2368 1232 5785 527 463 129 552 693 466 91 1136 334 151 691 375 164 5258 4210 4004\u000ashrinkage=0.1\u000a\u000a\u000aTree=17\u000anum_leaves=31\u000anum_cat=0\u000asplit_feature=0 4 3 1 4 4 0 1 0 4 4 1 2 1 3 1 3 4 4 0 3 0 0 1 0 3 0 0 1 3\u000asplit_gain=2.91852 4.10506 4.38306 4.11569 3.36987 10.3993 6.42936 5.72434 5.6588 5.5547 5.89232 9.35451 7.55366 7.51572 5.5907 5.25723 4.78009 4.66993 4.53917 4.52006 4.5189 4.27646 14.631 7.49492 5.6794 4.26523 4.24762 9.74397 5.33962 7.28467\u000athreshold=0.84976798295974743 13.650350570678713 0.77925249934196483 0.70742797851562511 12.463147163391115 12.577472209930422 0.35415175557136541 0.60483852028846752 0.33911722898483282 11.53793239593506 11.827873706817629 0.6280096471309663 0.77488142251968395 0.6387767791748048 0.8121851682662965 0.63575798273086559 0.61987635493278515 11.828789234161379 12.24683713912964 0.0155019648373127 0.94679802656173717 0.30688653886318212 0.38123480975627905 0.69149425625801098 0.26570999622344976 0.76478016376495372 0.033213503658771522 0.031694706529378898 0.63711321353912365 0.81838279962539684\u000adecision_type=2 2 2 2 2 2 2 2 2 2 2 2 2 2 2 2 2 2 2 2 2 2 2 2 2 2 2 2 2 2\u000aleft_child=4 2 -2 -4 9 19 8 -8 16 -1 12 18 21 -13 -14 -9 -7 -15 -12 -6 -17 24 -23 -24 -11 -19 27 -21 -28 -30\u000aright_child=1 -3 3 -5 5 6 7 15 -10 10 11 13 14 17 -16 20 -18 25 -20 26 -22 22 23 -25 -26 -27 28 -29 29 -31\u000aleaf_value=0.00012594546726398638 -0.006182048237346657 0.038094880326200085 -0.1010557170504469 0.0036302144866657508 0.042615458688208291 -0.077199874745330049 0.091109882779704429 -0.11393144233890898 0.10528768860273988 0.030799704150554247 -0.037957618607841914 0.075134760421518815 -0.029623989701058347 -0.014614143377041158 0.010111500566666856 -0.012715238685721747 0.0015765377742846247 -0.0073889418634077225 0.0048713658887980541 -0.021311397816497123 -0.092994900170074168 -0.062211813844093383 0.020014727948276044 0.13507740894225023 0.13623932326913057 0.0093546685566345995 -0.11444295850637361 -0.16156059262686606 0.036206162174520787 -0.018602642325732568\u000aleaf_count=86458 2912 82 38 25 50 31 20 22 21 812 320 61 187 472 597 993 7927 741 144 75 29 88 142 27 21 3452 22 27 104 1543\u000ainternal_value=0 -0.0609367 -0.0731069 -0.595872 0.00179771 -0.0317087 -0.00410736 -0.150459 0.0154359 0.00566502 0.0597431 0.0249993 0.156305 0.0516748 0.00621373 -0.170822 0.0126854 0.042541 -0.246509 -0.171717 -0.14993 0.264599 0.0391018 0.384172 0.33485 0.0638609 -0.188778 -0.585444 -0.163924 -0.150493\u000ainternal_count=107443 3057 2975 63 104386 10864 9043 1064 7979 93522 7064 5190 1874 4726 784 1044 7958 4665 464 1821 1022 1090 257 169 833 4193 1771 102 1669 1647\u000ashrinkage=0.1\u000a\u000a\u000aTree=18\u000anum_leaves=31\u000anum_cat=0\u000asplit_feature=1 1 0 0 0 4 2 0 0 0 3 4 1 3 3 0 3 4 4 2 2 3 0 1 4 2 1 3 4 4\u000asplit_gain=2.7101 3.8924 5.01681 8.27895 5.6901 6.40732 5.50447 3.1818 3.06024 3.85263 4.44867 2.95178 2.91779 4.90798 3.97413 4.6064 5.7784 4.89755 5.55525 4.57638 4.91868 5.24337 4.39505 4.25296 6.68159 7.2774 7.51997 5.74483 4.58541 4.05219\u000athreshold=0.16077270358800891 0.20408877730369571 0.035529218614101417 0.084533959627151503 0.34602792561054235 4.2652311325073251 0.13519970327615741 0.007960146293044092 0.55592805147171032 0.7319605052471162 0.2570978999137879 4.4434926509857187 0.22591157257556918 0.22833557426929477 0.41301837563514715 0.00079877141979523014 0.4262657910585404 6.6368854045867929 6.5788738727569589 0.39160089194774633 0.3946333527565003 0.58221128582954418 0.026645749807357792 0.8068273961544038 10.908823490142824 0.65571248531341564 0.49377425014972692 0.6811417043209077 12.463147163391115 14.892355442047121\u000adecision_type=2 2 2 2 2 2 2 2 2 2 2 2 2 2 2 2 2 2 2 2 2 2 2 2 2 2 2 2 2 2\u000aleft_child=11 2 6 -4 5 -5 -2 -8 -6 -10 -11 -1 13 -3 -14 16 -16 18 -17 22 21 -21 -19 24 25 26 27 -18 -26 -25\u000aright_child=1 12 3 4 8 -7 7 -9 9 10 -12 -13 14 -15 15 17 23 19 -20 20 -22 -23 -24 29 28 -27 -28 -29 -30 -31\u000aleaf_value=-0.020430740824907884 0.12458134652351374 0.029551803732812545 -0.0770637455273952 0.15180495944035868 -0.062823845249346075 0.020646678637631727 0.014928475660633891 0.060260182088667208 0.070302042156246206 -0.019205714574557567 0.057933009372440093 0.041935241180778356 0.0053902029780005497 -0.016949113088416169 -0.042157801363161877 -0.0031425385302788914 0.007222354745568549 0.060794987204091849 -0.021586172456923184 -0.059699427589012491 3.8227140636568558e-05 0.025202326068965809 0.010727834483536189 -0.10674027236031025 0.090172727278530762 -0.049163758629907073 0.043591845630681511 -0.098362955371386895 0.026539583493604125 0.013968379481933718\u000aleaf_count=408 23 103 52 21 32 52 339 76 30 179 36 33 5310 778 86 11451 1550 81 693 107 84808 40 527 24 67 87 248 21 160 21\u000ainternal_value=0 0.000652118 0.136467 -0.0250069 0.0857348 0.583427 0.284866 0.232361 -0.0452308 0.0307201 -0.0629992 -0.15735 -0.000422971 -0.115137 0.000538725 -0.00230067 0.087324 -0.00436451 -0.041953 0.000987935 -0.000253512 -0.365924 0.173985 0.10758 0.1205 0.0822119 0.109016 0.0581241 0.45105 -0.503006\u000ainternal_count=107443 107002 840 402 350 73 438 415 277 245 215 441 106162 881 105281 99971 2264 97707 12144 85563 84955 147 608 2178 2133 1906 1819 1571 227 45\u000ashrinkage=0.1\u000a\u000a\u000aTree=19\u000anum_leaves=31\u000anum_cat=0\u000asplit_feature=4 4 2 0 3 0 4 4 0 2 0 0 3 1 0 1 1 1 2 0 3 1 3 1 3 3 3 3 4 4\u000asplit_gain=2.65474 5.29464 4.30291 5.96991 4.31112 3.87844 3.55408 7.46924 5.33127 4.71722 5.41065 3.9606 3.48389 5.09748 3.24501 4.0931 3.18739 5.26941 5.6155 3.00502 2.9604 6.20169 2.95005 2.79482 3.30673 3.58593 2.78351 3.47058 3.51572 12.0011\u000athreshold=15.373113155364992 14.753562450408937 0.91901907324790966 0.066263329237699523 0.92908349633216869 0.98158225417137157 13.476926326751711 13.289951801300051 0.11136487126350404 0.85800433158874523 0.058343647047877319 0.1239200457930565 0.90908426046371471 0.70337828993797313 0.0067737584467977294 0.65976890921592724 0.56341245770454418 0.35090182721614843 0.31894859671592718 0.0084885261021554487 0.92176219820976268 0.81107544898986828 0.92062559723854076 0.59562668204307567 0.65427774190902721 0.69943407177925121 0.91604155302047741 0.88814291357994091 12.11391067504883 12.24683713912964\u000adecision_type=2 2 2 2 2 2 2 2 2 2 2 2 2 2 2 2 2 2 2 2 2 2 2 2 2 2 2 2 2 2\u000aleft_child=1 5 3 -2 -5 6 7 9 14 20 -11 -10 13 -3 -9 -16 17 18 -7 -14 26 -22 -12 -8 -25 -26 27 -1 -29 -30\u000aright_child=2 12 -4 4 -6 16 23 8 11 10 22 -13 19 -15 15 -17 -18 -19 -20 -21 21 -23 -24 24 25 -27 -28 28 29 -31\u000aleaf_value=0.00011775974870773312 0.041510739259805196 -0.029006894681383639 -0.012605990134210472 0.0086781241593835191 -0.078579462105494907 -0.015106115640054233 0.060257070683693015 -0.025742336395317145 -0.064558918574009527 0.044286095152597987 -0.017807891776559739 -0.020336169154509656 -0.057326487787265179 0.0055591787103091775 -0.054717164899510951 0.016674646368882554 -0.092136885327232368 0.013032824482602887 -0.095159451105519682 -0.016010181381713701 0.024397414332320889 -0.013611397358336247 0.02521889535192386 -0.058701035649024437 0.087001787779861284 0.0074612306073801281 -0.015456610511863153 0.024703131425414349 -0.060730404611519219 0.0095555630821546767\u000aleaf_count=97070 275 221 245 436 24 111 41 193 137 65 1145 199 77 753 37 257 24 135 52 840 552 251 68 30 23 1951 455 437 106 1233\u000ainternal_value=0 -0.000944861 0.103927 0.18073 0.0412496 0.000954186 0.00163144 -2.00835e-05 -0.190126 0.0015229 -0.121762 -0.384051 -0.106068 -0.0228574 -0.0560282 0.0769134 -0.218873 -0.162166 -0.405498 -0.195034 0.00303774 0.124472 -0.153018 0.0844928 0.0738635 0.0839246 0.00206072 0.00277868 0.0907515 0.0396729\u000ainternal_count=107443 106463 980 735 460 104572 104250 102205 823 101382 1278 336 1891 974 487 294 322 298 163 917 100104 803 1213 2045 2004 1974 99301 98846 1776 1339\u000ashrinkage=0.1\u000a\u000a\u000aTree=20\u000anum_leaves=31\u000anum_cat=0\u000asplit_feature=0 0 3 2 4 3 3 3 4 2 4 0 4 0 4 4 2 3 4 1 2 2 0 3 1 1 4 2 2 4\u000asplit_gain=2.40258 5.26528 7.5018 10.2826 5.92929 7.17613 8.07179 5.60992 3.97988 8.53713 7.34446 6.13536 5.29622 5.09422 6.91074 4.74719 4.98261 6.79949 4.6616 4.55306 3.81799 3.51236 4.25197 5.16399 5.115 4.06386 3.77726 3.7119 3.30489 3.20319\u000athreshold=0.65518072247505199 0.66242638230323803 0.61289137601852428 0.5957738757133485 6.3735535144805917 0.5105765461921693 0.5795908272266389 0.79854568839073192 9.9348621368408221 0.65809708833694469 9.8347234725952166 0.67426213622093212 9.6167931556701678 0.6856064796447755 11.698363780975344 12.043741703033449 0.64922282099723827 0.62455022335052501 10.128530979156496 0.5653427541255952 0.7256353795528413 0.65300500392913829 0.84273529052734386 0.7120538353919984 0.57158085703849804 0.70742797851562511 10.908823490142824 0.66095164418220531 0.66928583383560192 12.577472209930422\u000adecision_type=2 2 2 2 2 2 2 2 2 2 2 2 2 2 2 2 2 2 2 2 2 2 2 2 2 2 2 2 2 2\u000aleft_child=-1 2 4 -4 -2 -6 -7 -5 9 10 12 -11 -3 14 20 16 17 -15 -18 -12 -10 -20 25 24 26 27 -24 -23 -29 -17\u000aright_child=1 8 3 7 5 6 -8 -9 13 11 19 -13 -14 15 -16 29 18 -19 21 -21 -22 22 23 -25 -26 -27 -28 28 -30 -31\u000aleaf_value=0.00029164238284559349 0.027852884806677854 -0.0029303744337629695 0.11891841493616705 -0.0020381786251109551 -0.17130632146393265 0.061354479285130006 -0.074110474568239257 -0.11605733895919856 -0.029611566504605349 0.030689717756587988 -0.073580315166001331 -0.057503584291423895 0.03391731352206459 0.0072253072948700653 0.048723873233943074 -0.029937677874625292 0.073443962303568297 -0.088082615654981822 0.099524715148877466 0.017320619248769011 -0.11082939510740936 -0.054196850076938176 -0.060263823387260468 0.023246994297295154 -0.093735488793445121 -0.026001487519031016 0.05860446689531567 0.10119857835527127 0.028265158606912956 0.006751997897354766\u000aleaf_count=98210 29 6699 26 127 24 21 109 20 92 38 92 187 160 130 37 165 67 39 21 29 31 21 20 87 44 60 23 26 582 227\u000ainternal_value=0 -0.0308649 -0.269579 0.0297141 -0.55173 -0.707906 -0.522409 -0.176009 -0.0212901 -0.0417004 -0.0293359 -0.425717 -0.0207059 0.0667513 -0.272985 0.102725 0.169059 -0.147664 0.22538 -0.517906 -0.500757 0.186766 0.167058 -0.112501 -0.457208 0.237739 0.0332291 0.285272 0.313891 -0.0871493\u000ainternal_count=107443 9233 356 173 183 154 130 147 8877 7205 6980 225 6859 1672 160 1512 1120 169 951 121 123 884 863 174 87 689 43 629 608 392\u000ashrinkage=0.1\u000a\u000a\u000aTree=21\u000anum_leaves=31\u000anum_cat=0\u000asplit_feature=1 0 4 2 3 3 1 1 4 4 1 1 2 4 3 3 0 0 4 3 1 1 0 2 2 3 2 0 1 1\u000asplit_gain=2.15693 2.24172 3.72207 4.5864 3.72006 8.18488 2.87582 4.04521 4.03557 7.22217 4.03512 4.86771 3.80092 3.09831 3.67582 2.79415 4.40921 4.98298 4.36529 4.78543 6.11072 5.68364 4.83455 5.25357 12.0283 5.31552 4.41888 4.36298 5.66104 7.22805\u000athreshold=1.0000000180025095e-35 0.9596233367919923 13.476926326751711 0.69693961739540111 0.72496736049652111 0.6382245421409608 0.35090182721614843 0.49173493683338171 6.4086017608642587 5.9125089645385751 0.2937887459993363 0.25978800654411321 0.42248703539371496 7.5601847171783456 0.48168236017227178 0.41301837563514715 0.00079877141979523014 0.0015362952253781261 5.1660459041595468 0.44656355679035192 0.3342070877552033 0.35756622254848486 0.0012889905483461919 0.4786954820156098 0.44030207395553594 0.55103772878646862 0.57893022894859325 0.00023216216504806655 0.26659561693668371 0.18740902841091159\u000adecision_type=2 2 2 2 2 2 2 2 2 2 2 2 2 2 2 2 2 2 2 2 2 2 2 2 2 2 2 2 2 2\u000aleft_child=-1 15 3 4 5 6 8 12 9 10 11 -3 -8 -14 -15 27 -17 18 -18 -20 -21 -22 23 24 25 -23 -25 28 29 -2\u000aright_child=1 2 -4 -5 -6 -7 7 -9 -10 -11 -12 -13 13 14 -16 16 17 -19 19 20 21 22 -24 26 -26 -27 -28 -29 -30 -31\u000aleaf_value=-0.064811228603884982 0.016344618351195463 -0.020010489768079731 0.061331491501260674 -0.10255228766590248 0.053009949147796859 -0.13509262497925464 -0.0056595279311743296 -0.043861676152529588 -0.058027140833117455 0.10079114569194399 -0.078116706443491377 0.076974041071574462 0.11123238126452231 -0.035128502188223776 0.068539851611480476 0.0083928970801104476 -0.051533885018756977 -0.00021300679404551894 -0.084234774286877076 0.03408514406656557 -0.074427959633209209 -0.081801175540492002 -0.032882624287394795 -0.039403741749316212 0.11998851014643118 0.018871931345910767 -0.00086925715663548292 0.00559207841351 0.019938254123445274 -0.039893128384563048\u000aleaf_count=21 130 155 27 23 34 22 100 50 93 22 39 24 25 23 34 2368 104 96105 33 130 55 26 254 153 44 109 544 6215 162 319\u000ainternal_value=0 0.000132085 -0.115396 -0.145997 -0.113444 -0.150866 -0.104145 0.0668879 -0.223813 -0.0868637 -0.197323 -0.069924 0.205238 0.524899 0.266959 0.0008573 -0.00182328 -0.00388928 -0.120443 -0.0898515 -0.0708893 -0.116257 -0.0855439 -0.0148051 0.290773 -0.00518635 -0.0937987 0.0400597 -0.121581 -0.237567\u000ainternal_count=107443 107422 671 644 621 587 565 232 333 240 218 179 182 82 57 106751 99925 97557 1452 1348 1315 1185 1130 876 179 135 697 6826 611 449\u000ashrinkage=0.1\u000a\u000a\u000aTree=22\u000anum_leaves=31\u000anum_cat=0\u000asplit_feature=1 1 0 0 2 0 4 3 3 2 0 0 0 0 3 2 0 2 2 2 4 1 4 0 4 3 0 3 0 0\u000asplit_gain=2.19488 3.20044 4.04033 6.84566 4.51432 4.46635 5.31589 2.67547 4.74363 3.21444 3.14362 4.61752 2.85446 2.57101 3.05341 2.5569 5.75816 4.70258 4.73095 6.30796 5.24864 4.79167 4.38781 7.59474 7.01241 6.38181 5.39131 5.15764 4.27551 6.02075\u000athreshold=0.16077270358800891 0.20408877730369571 0.035529218614101417 0.084533959627151503 0.13519970327615741 0.34602792561054235 4.2652311325073251 0.22833557426929477 0.2570978999137879 0.13519970327615741 0.0010496224858798089 0.007960146293044092 0.55592805147171032 0.55592805147171032 0.22833557426929477 0.207835428416729 0.00023216216504806655 0.2224521338939667 0.23921400308609012 0.25464892387390142 5.457282781600953 0.2937887459993363 5.5450227260589608 0.023303980007767681 5.5963191986083993 0.55926901102066051 0.0067737584467977294 0.54838895797729503 0.87844422459602367 0.4691378921270371\u000adecision_type=2 2 2 2 2 2 2 2 2 2 2 2 2 2 2 2 2 2 2 2 2 2 2 2 2 2 2 2 2 2\u000aleft_child=7 2 4 -4 -2 6 -5 10 -9 -10 -1 -12 -13 -7 -15 16 -3 -17 -19 20 21 -20 23 26 25 -24 27 -21 29 -18\u000aright_child=1 15 3 5 -6 13 -8 8 9 -11 11 12 -14 14 -16 17 28 18 19 22 -22 -23 24 -25 -26 -27 -28 -29 -30 -31\u000aleaf_value=-0.074749396405905055 0.11373147048491201 -0.041426506036989517 -0.069849562006133209 0.13812973455574482 0.021011243038864348 -0.056957106939784986 0.018011416605604638 0.064844133566997239 -0.051845577349654982 0.032506126461536021 0.077056236445590509 -0.046028098947500568 -0.0036075872181357571 -0.014720773848208333 0.031013581008176895 0.015103866353208432 -0.0052447954311682877 -0.015076587459035765 0.028364306594324842 -0.014866625870943543 -0.040169310100627555 -0.016078423645013568 0.035127209309975378 0.0025479241047531745 3.4067614148315453e-05 -0.048202360122633466 -0.035737087412693345 0.027984959452347791 -0.052433219768017639 0.050960470717368235\u000aleaf_count=43 23 192 52 21 415 32 52 43 46 30 20 121 138 148 97 825 542 835 659 945 59 114 359 1494 99362 41 456 128 62 89\u000ainternal_value=0 0.000585484 0.123866 -0.0211127 0.257252 0.0798316 0.522131 -0.141713 0.114972 -0.185706 -0.237481 -0.159719 -0.231887 -0.0360637 0.0337373 -0.00038859 -0.10754 0.000513835 -0.000677587 0.000534023 0.174155 0.218065 -0.000873772 -0.075989 0.00140804 0.265839 -0.175161 -0.0976407 -0.0225323 0.026742\u000ainternal_count=107443 107002 840 402 438 350 73 441 119 76 322 279 259 277 245 106162 885 105277 104452 103617 832 773 102785 3023 99762 400 1529 1073 693 631\u000ashrinkage=0.1\u000a\u000a\u000aTree=23\u000anum_leaves=31\u000anum_cat=0\u000asplit_feature=0 2 1 2 3 0 0 4 1 0 3 0 3 0 3 0 4 2 3 2 0 1 4 3 4 4 3 2 2 4\u000asplit_gain=2.20551 4.05629 6.32253 3.1797 3.21281 2.73462 2.77872 2.66413 6.76899 11.2745 7.37458 6.50442 6.25708 7.44975 8.75448 7.17352 7.09419 6.21335 9.73101 6.11986 5.81013 7.38233 5.89679 5.80915 9.90828 7.14006 6.78861 6.73937 5.71872 6.09545\u000athreshold=0.0084885261021554487 0.88649854063987743 0.83289334177970897 0.91901907324790966 0.94340693950653087 0.19686558842658999 0.35985554754734045 8.8933501243591326 0.44791622459888464 0.038106134161353118 0.6593916416168214 0.24563196301460269 0.6611732840538026 0.023303980007767681 0.65622317790985119 0.644382804632187 7.4183232784271249 0.58351838588714611 0.65748384594917308 0.42248703539371496 0.6856064796447755 0.52810627222061168 8.5860466957092303 0.58715295791625988 9.0834035873413104 8.9368219375610369 0.70977103710174572 0.58570706844329845 0.41521577537059789 4.2652311325073251\u000adecision_type=2 2 2 2 2 2 2 2 2 2 2 2 2 2 2 2 2 2 2 2 2 2 2 2 2 2 2 2 2 2\u000aleft_child=-1 2 7 -3 -5 -4 -7 12 9 -9 -11 -10 13 14 16 -15 28 18 20 -14 22 -22 -17 25 -25 -13 27 -26 29 -2\u000aright_child=1 3 5 4 -6 6 -8 8 11 10 -12 23 19 15 -16 17 -18 -19 -20 -21 21 -23 -24 24 26 -27 -28 -29 -30 -31\u000aleaf_value=0.0025162720497133233 0.075618119636049461 0.020153672920549842 -0.012559260042399316 -0.023003043618610233 0.050193452749079229 0.024816943922485415 -0.021499795184281141 -0.091937032554291642 0.002233409927606156 0.025103311834433806 -0.056162738688746966 -0.075032105909338481 -0.066989203216625312 0.0027715849209039474 0.085097286904646741 -0.026711914849008617 -0.021163582427467267 -0.084028581388774115 0.10193883928439243 -0.0049580033888900659 -0.0013189427550146017 -0.042543602608003259 0.070510990853394573 0.020865868489513911 0.057252938129558742 -0.011340937750331903 -0.0050045226062678371 0.0041094283390295614 0.015528486349981467 -0.0091256149027704927\u000aleaf_count=12416 35 647 2314 142 29 163 77 37 30471 932 47 74 64 23229 40 640 1285 40 34 11474 4465 181 26 752 99 1481 10896 2767 531 2055\u000ainternal_value=0 -0.0032695 -0.00448846 0.137282 -0.105813 -0.104008 0.099848 -0.00178181 0.00862999 0.170749 0.211781 0.0051038 -0.0129796 0.00121286 -0.0802929 0.0124571 -0.0898322 -0.0533564 -0.0474836 -0.0530236 -0.0543185 -0.0292565 -0.229153 -0.0274706 -0.0150082 -0.143735 -0.0272419 0.0594685 -0.0301247 -0.0772437\u000ainternal_count=107443 95027 94209 818 171 2554 240 91655 47556 1016 979 46540 44099 32561 3946 28615 3906 5386 5346 11538 5312 4646 666 16069 14514 1555 13762 2866 2621 2090\u000ashrinkage=0.1\u000a\u000a\u000aTree=24\u000anum_leaves=31\u000anum_cat=0\u000asplit_feature=4 4 1 1 1 4 3 1 4 2 3 2 3 0 0 0 3 1 3 0 4 3 0 1 2 3 3 4 3 0\u000asplit_gain=2.05974 7.84866 5.89498 8.33452 5.73718 8.04647 6.2838 6.90585 5.47321 5.14649 4.97379 6.15354 6.86511 5.61413 4.73804 4.67808 5.36727 4.28851 4.23137 7.33662 9.4537 5.54596 8.6372 6.75865 6.04757 5.78715 5.37627 4.26676 4.21739 4.16593\u000athreshold=12.181786060333254 11.53793239593506 0.72536349296569835 0.78986307978630077 0.6280096471309663 11.867661476135256 0.82180565595626842 0.6063024401664735 12.24683713912964 0.7256353795528413 0.88590314984321605 0.80292716622352611 0.89883625507354747 0.51493552327156078 0.1792520955204964 0.35415175557136541 0.65283721685409557 0.5970924198627473 0.83475843071937572 0.395762249827385 12.306625843048097 0.80246612429618847 0.17215143889188769 0.72307014465332042 0.80899271368980419 0.83161330223083507 0.84536564350128185 12.577472209930422 0.85283041000366222 0.32329493761062628\u000adecision_type=2 2 2 2 2 2 2 2 2 2 2 2 2 2 2 2 2 2 2 2 2 2 2 2 2 2 2 2 2 2\u000aleft_child=1 -1 4 10 5 6 7 15 -2 -10 13 12 -12 -4 -13 17 -17 -3 21 20 28 23 24 -11 -23 -24 -21 -25 -20 -22\u000aright_child=8 2 3 -5 -6 -7 -8 -9 9 18 11 14 -14 -15 -16 16 -18 -19 19 26 29 22 25 27 -26 -27 -28 -29 -30 -31\u000aleaf_value=-9.1033906801265012e-05 -0.018491083221952313 0.016415592760595229 -0.008981888017161441 0.020668290075919329 0.020333010579083381 -0.033069807492037438 -0.094256574837322527 0.07902931425711815 0.091400781488510455 -0.0053989926717238484 0.099776561552352899 -0.076472263034518137 0.010455296392247189 -0.090239872486716277 0.038005949682385035 0.027381901128363102 -0.060721923443149507 0.1095303188828767 -0.023955063754566994 0.068456755142186909 0.0009628131032533209 -0.04897948076224469 0.0035478554888985349 0.090993713634545004 -0.015652067193538257 0.083072974408750277 -0.01915929374680421 0.018989570561834097 0.059186103390294953 0.038881777189520239\u000aleaf_count=89340 791 161 1377 618 1915 216 20 68 24 1374 56 37 91 35 24 48 66 23 29 29 8062 277 184 39 1091 46 887 234 163 118\u000ainternal_value=0 0.00330025 0.0827833 0.00795976 0.149559 -0.0215761 0.153053 0.213267 -0.0233686 -0.0131142 -0.0674187 0.222423 0.444811 -0.109959 -0.31353 0.0807137 -0.23723 0.28111 -0.0149009 0.00677724 0.0254322 -0.0778483 -0.164047 0.00314935 -0.226703 0.194185 -0.163731 0.291983 0.466188 0.0151156\u000ainternal_count=107443 94095 4755 2238 2517 602 386 366 13348 12557 1620 208 147 1412 61 298 114 184 12533 9288 8372 3245 1598 1647 1368 230 916 273 192 8180\u000ashrinkage=0.1\u000a\u000a\u000aTree=25\u000anum_leaves=31\u000anum_cat=0\u000asplit_feature=0 0 3 1 0 4 4 1 3 3 2 4 3 1 1 4 3 2 0 3 2 3 3 3 4 4 4 3 2 1\u000asplit_gain=1.90399 5.4555 3.60363 5.37259 3.24307 12.3378 6.57324 14.6917 5.80998 3.75724 3.70448 9.3706 3.0357 5.83555 8.60155 4.2965 4.00948 3.91474 4.75053 3.77231 3.60198 3.57345 3.44919 3.37669 2.88704 3.56282 2.81283 3.56759 2.6955 4.89872\u000athreshold=0.11136487126350404 0.10562146827578546 0.94679802656173717 0.77265751361846935 0.1211146041750908 13.162647247314455 6.9589357376098642 0.40528458356857305 0.56742802262306224 0.8724062740802766 0.32320266962051397 5.4031620025634775 0.86888551712036144 0.59562668204307567 0.61677575111389171 9.1874985694885272 0.80246612429618847 0.53477245569229137 0.10932501032948495 0.55580687522888195 0.66596621274948131 0.76746013760566723 0.65748384594917308 0.5891992747783662 6.1494600772857675 6.7453529834747323 12.39195775985718 0.85093528032302868 0.79611700773239147 0.72536349296569835\u000adecision_type=2 2 2 2 2 2 2 2 2 2 2 2 2 2 2 2 2 2 2 2 2 2 2 2 2 2 2 2 2 2\u000aleft_child=1 -1 4 -4 5 6 7 10 -8 26 11 -2 13 17 16 -16 20 18 -3 -20 -15 -17 23 -21 -12 -26 27 28 29 -10\u000aright_child=2 12 3 -5 -6 -7 8 -9 9 -11 24 -13 -14 14 15 21 -18 -19 19 22 -22 -23 -24 -25 25 -27 -28 -29 -30 -31\u000aleaf_value=0.0005411089247786677 0.063867551626975924 -0.0082629334096258316 -0.10713858187257269 -0.0032834254109922697 -0.00044342330745024763 -0.055812218286558725 0.051897453390782305 -0.06722625809012768 0.0041218640488383329 -0.07636491484224317 0.091925285908954935 -0.055254116147843237 0.052131802471954806 -0.080477295970363016 -0.075498326868827556 0.068265776087573518 -0.14646663393742229 0.03458765296399078 0.099134133173187866 0.036316754822976589 0.026111425959591445 0.0036546466948678227 0.080175815148078367 -0.06052361220214917 -0.0097242158395084016 0.084844678921583136 0.070064912808157534 -0.03746227475720431 0.073363596455304089 -0.044983177574857314\u000aleaf_count=51591 40 265 32 54 52259 199 89 189 1285 26 27 80 79 35 24 40 20 420 32 31 20 245 25 27 58 22 23 98 21 87\u000ainternal_value=0 0.00859661 -0.00827842 -0.419036 -0.0076341 -0.0821839 -0.0358526 -0.26043 0.0215519 -0.00721126 0.0832524 -0.158911 0.138961 0.113624 -0.0894177 0.0586568 -0.697464 0.211423 0.0646259 0.404861 -0.418127 0.127392 0.180289 -0.0876869 0.353616 0.162695 0.00572764 -0.00499679 0.0209708 0.01008\u000ainternal_count=107443 52854 54589 86 54503 2244 2045 416 1629 1540 227 120 1263 1184 384 309 75 800 380 115 55 285 83 58 107 80 1514 1491 1393 1372\u000ashrinkage=0.1\u000a\u000a\u000aTree=26\u000anum_leaves=31\u000anum_cat=0\u000asplit_feature=1 2 0 4 0 0 0 0 3 3 0 3 3 1 0 4 4 3 2 0 0 0 2 2 4 1 1 1 1 2\u000asplit_gain=1.95116 2.66757 4.23667 2.2382 2.08257 2.38039 3.94155 2.15066 4.34927 2.82656 2.08133 1.92752 4.87322 4.11177 4.07203 3.84626 6.07663 4.25759 5.25222 4.75969 4.19546 5.70171 4.31623 6.06592 3.93217 4.3586 3.62151 3.90176 4.54626 3.63404\u000athreshold=0.16077270358800891 0.13519970327615741 0.48446905612945562 4.4434926509857187 0.55592805147171032 0.066263329237699523 0.00209633621852845 7.7236414654180421e-05 0.22833557426929477 0.2570978999137879 0.92075228691101085 0.41301837563514715 0.44656355679035192 0.53602448105812084 0.00079877141979523014 8.0959029197692889 7.944568634033204 0.44169881939888006 0.54294016957283031 0.20097301155328753 0.80337563157081615 0.59437650442123424 0.41233544051647192 0.33926407992839819 8.3087525367736834 0.43376389145851141 0.21360087394714358 0.38866220414638525 0.8068273961544038 0.36306640505790716\u000adecision_type=2 2 2 2 2 2 2 2 2 2 2 2 2 2 2 2 2 2 2 2 2 2 2 2 2 2 2 2 2 2\u000aleft_child=3 2 -2 4 5 6 7 8 -1 -9 -6 -3 13 15 26 16 20 19 -19 -17 21 -13 23 -23 25 -21 -14 29 -29 -28\u000aright_child=1 11 -4 -5 10 -7 -8 9 -10 -11 -12 12 14 -15 -16 17 -18 18 -20 24 -22 22 -24 -25 -26 -27 27 28 -30 -31\u000aleaf_value=-0.054904267918083817 0.10235279246988441 0.0033210542220450038 -0.0032878974350488096 0.03696865364565282 0.02101766498147533 -0.050422693550657982 0.038180163083658493 -0.011776328034484539 0.061060372487681272 -0.10685178065121137 -0.02843705808427506 -0.010184781420799184 0.083095848916425186 -0.098724237711929619 -0.00013726356520539937 -0.00094680575632466598 -0.07601205620286515 -0.12810432781068287 -0.0043044401137403501 0.036169412848156425 -0.0343385524661158 0.00073092792554827954 -0.025644956518752343 0.084707168781044284 0.013669129787114431 0.13566310028270587 0.003492134189386994 0.019589979457718884 -0.0458113912718843 -0.033849509303678922\u000aleaf_count=31 28 6696 36 33 88 114 45 24 23 27 56 1787 26 20 95192 400 57 20 44 48 248 66 47 72 110 28 924 990 45 118\u000ainternal_value=0 0.000553041 0.414642 -0.133825 -0.174797 -0.28222 -0.115938 -0.33073 -0.0485535 -0.626672 0.0184332 0.000311256 -0.001889 -0.0820883 0.000545565 -0.0759107 -0.114625 0.0601173 -0.430703 0.113725 -0.0980674 -0.0672152 0.267136 0.445507 0.378574 0.729589 0.0881811 0.0787842 0.167156 -0.00738626\u000ainternal_count=107443 107002 64 441 408 264 150 105 54 51 144 106938 100242 2947 97295 2927 2277 650 64 586 2220 1972 185 138 186 76 2103 2077 1035 1042\u000ashrinkage=0.1\u000a\u000a\u000aTree=27\u000anum_leaves=31\u000anum_cat=0\u000asplit_feature=4 4 2 0 3 4 4 0 0 1 1 2 3 1 3 2 4 1 3 4 2 4 1 4 0 0 1 1 3 3\u000asplit_gain=1.83784 4.08177 3.11796 4.82773 3.51864 2.86021 5.32527 3.57312 3.15549 3.12671 3.24082 4.30168 2.84264 3.98487 3.63431 3.46117 7.90179 4.96075 7.66328 9.99854 4.26306 7.06598 8.57059 6.85038 6.58052 7.64923 5.81734 4.33759 6.20919 4.28588\u000athreshold=15.373113155364992 14.753562450408937 0.91901907324790966 0.066263329237699523 0.92908349633216869 13.476926326751711 13.289951801300051 0.11136487126350404 0.98158225417137157 0.56341245770454418 0.35090182721614843 0.31894859671592718 0.92062559723854076 0.8068273961544038 0.92484432458877575 0.80482953786849987 13.057722568511965 0.79491150379180919 0.77549868822097789 10.636404991149904 0.81282591819763195 12.577472209930422 0.75073793530464183 13.007427215576174 0.14963631331920627 0.044083319604396827 0.84479379653930675 0.77768361568450939 0.87973207235336315 0.90498554706573497\u000adecision_type=2 2 2 2 2 2 2 2 2 2 2 2 2 2 2 2 2 2 2 2 2 2 2 2 2 2 2 2 2 2\u000aleft_child=1 5 3 -2 -5 6 8 -8 12 10 11 -10 15 -14 -15 16 17 -1 -19 -20 21 22 -17 24 25 26 -22 28 -27 -30\u000aright_child=2 -3 -4 4 -6 -7 7 -9 9 -11 -12 -13 13 14 -16 20 -18 18 19 -21 23 -23 -24 -25 -26 27 -28 -29 29 -31\u000aleaf_value=0.000145865102777026 0.036356117028454475 -0.0093123298310935024 -0.010907391971017521 0.0067990634784303259 -0.071938186400238968 0.007511579773521339 -0.0051466821045888329 -0.032022447141842679 -0.011585032489944698 -0.095673319600254075 0.0087860458245464009 -0.082223949816781855 0.022642228964491938 0.034923754574932651 -0.014406206134375361 -0.067599042856104366 0.0431208108638352 -0.02632349038808908 0.11305680520984618 0.01989415202216541 0.010539985320154925 0.0065190507994727451 -0.01586917710345365 -0.020223971806143173 0.021303444412337537 0.086776197674787475 0.079983584728675339 -0.01053580798146978 -0.067011474686820893 0.03880325876753854\u000aleaf_count=94498 275 1891 245 436 24 2053 487 336 111 21 130 52 528 75 298 154 173 90 61 199 692 434 773 668 589 46 53 1989 29 33\u000ainternal_value=0 -0.000785915 0.0865465 0.152091 0.0267561 0.000881723 -0.000598062 -0.161223 0.000700627 -0.200778 -0.147406 -0.337708 0.00131909 0.113672 -0.044673 0.000316921 0.0031182 0.0023387 0.240822 0.415767 -0.0490604 -0.145976 -0.244609 -0.0163169 0.0203767 -0.0203525 0.154405 -0.0835797 0.308214 -0.106318\u000ainternal_count=107443 106463 980 735 460 104572 102519 823 101696 314 293 163 101382 901 373 100481 95021 94848 350 260 5460 1361 927 4099 3431 2842 745 2097 108 62\u000ashrinkage=0.1\u000a\u000a\u000aTree=28\u000anum_leaves=31\u000anum_cat=0\u000asplit_feature=4 4 1 2 4 2 1 3 1 0 4 0 1 3 2 2 1 1 2 4 2 2 1 0 1 3 3 2 3 3\u000asplit_gain=1.71995 7.57658 6.52391 5.68169 5.52416 7.23341 6.31102 6.42488 4.94899 4.72212 6.70699 6.69189 7.04509 6.98957 8.10011 5.74089 10.5754 6.53394 5.68353 5.54427 5.52472 4.82721 5.13636 6.74084 5.29769 4.74021 4.66613 4.44448 4.29929 8.53115\u000athreshold=8.1203732490539569 7.9859313964843759 0.4521364718675614 0.47124840319156652 7.9235575199127206 0.59202572703361522 0.56710320711135875 0.72830876708030712 0.44791622459888464 0.75387099385261547 9.9031891822814959 0.92075228691101085 0.60483852028846752 0.4744334369897843 0.53193193674087536 0.5715160369873048 0.56341245770454418 0.38436494767665869 0.51040393114089977 10.540777683258058 0.6188262701034547 0.56548291444778453 0.54989331960678112 0.017629698850214485 0.54037395119667064 0.46118913590908056 0.73615106940269481 0.59365385770797741 0.72830876708030712 0.69943407177925121\u000adecision_type=2 2 2 2 2 2 2 2 2 2 2 2 2 2 2 2 2 2 2 2 2 2 2 2 2 2 2 2 2 2\u000aleft_child=1 4 8 -2 26 6 7 -6 -3 15 11 28 13 14 -13 16 17 -5 -15 20 -12 22 24 -24 -19 -17 -1 -20 29 -11\u000aright_child=3 2 -4 9 5 -7 -8 -9 -10 10 19 12 -14 18 -16 25 -18 21 27 -21 -22 -23 23 -25 -26 -27 -28 -29 -30 -31\u000aleaf_value=-0.00064988926860475287 0.070529514380236538 -0.00048339991532756296 -0.018596289294320917 -0.046856184347032287 0.011476005225835148 -0.07999254740410186 0.045470713565235833 -0.10384911935036344 0.062602126773265848 -0.020437201491894406 -0.05869825659829412 0.02844308790681906 -0.097608497945260428 -0.045043876565211055 -0.13093625453681343 -0.04655284189987028 0.068472169676367753 0.0047548620908645506 0.087695695326155787 -0.0071711916451284476 0.030952999063372229 0.019388081467596484 0.15067147871880793 0.0238298133758508 -0.016719836005506458 0.00026927694718571424 -0.071724727191413082 -0.0058106948620183056 -0.040858194802992978 0.044432460042618339\u000aleaf_count=36443 47 638 1705 96 583 31 254 20 54 923 30 33 20 21 21 87 107 6155 96 575 353 918 20 105 497 57122 37 26 337 89\u000ainternal_value=0 -0.0104329 -0.119478 0.00616668 -0.00343147 0.152905 0.187307 0.0764924 0.0444103 0.00568363 -0.0793209 -0.160014 0.166905 0.281128 -0.333611 0.00898783 0.0596049 0.0510095 0.512887 0.052808 0.239486 0.0574867 0.0390305 0.440888 0.0314631 0.00197949 -0.00722071 0.678486 -0.212427 -0.147309\u000ainternal_count=107443 39765 2397 67678 37368 888 857 603 692 67631 2524 1566 217 197 54 65107 7898 7791 143 958 383 7695 6777 125 6652 57209 36480 122 1349 1012\u000ashrinkage=0.1\u000a\u000a\u000aTree=29\u000anum_leaves=31\u000anum_cat=0\u000asplit_feature=1 4 4 1 1 1 4 3 1 3 4 3 0 3 1 3 1 0 4 0 3 2 1 3 2 0 3 0 3 2\u000asplit_gain=1.74619 1.49944 6.38404 4.75605 5.84471 4.63609 6.53479 5.08028 5.64774 4.5937 4.30073 3.79717 4.05839 3.78071 12.5416 4.88661 3.98167 4.64054 3.64302 6.25961 4.27984 3.45524 5.84174 5.49096 6.95697 4.9167 5.43112 3.86851 3.74017 3.27655\u000athreshold=1.0000000180025095e-35 12.181786060333254 11.53793239593506 0.72536349296569835 0.78986307978630077 0.6280096471309663 11.867661476135256 0.82180565595626842 0.6063024401664735 0.78787097334861766 12.24683713912964 0.66499057412147533 0.35985554754734045 0.8753245770931245 0.72002723813056957 0.85513249039649974 0.6562582552433015 0.17488040775060656 12.306625843048097 0.395762249827385 0.85283041000366222 0.80292716622352611 0.75532299280166637 0.82180565595626842 0.80482953786849987 0.11136487126350404 0.84914991259574901 0.1909940987825394 0.82903301715850841 0.76490554213523876\u000adecision_type=2 2 2 2 2 2 2 2 2 2 2 2 2 2 2 2 2 2 2 2 2 2 2 2 2 2 2 2 2 2\u000aleft_child=-1 2 13 5 9 6 7 8 11 -5 -3 -4 -13 15 -15 -2 17 -17 19 20 -12 22 25 -23 -25 -11 28 -24 -27 -16\u000aright_child=1 10 3 4 -6 -7 -8 -9 -10 21 18 12 -14 14 29 16 -18 -19 -20 -21 -22 23 27 24 -26 26 -28 -29 -30 -31\u000aleaf_value=-0.058880829679315808 -0.00010605384299516329 -0.016301338945663744 0.031630659370527836 -0.060061933425009706 0.017417088028559218 0.018309868912561627 -0.029744952118815445 -0.084426933434106913 0.071716117332722581 0.015175263813383183 0.0053786010734004491 0.013192086207209281 -0.05227887099775165 0.035803042317322058 -0.071099765460682238 0.099076024824809983 0.010312221572051609 0.012547039677688429 -0.0016735441030633774 -0.035505085862688787 0.053330630883319657 0.036399759621913975 0.024763265208083744 -0.10412283778111778 -0.013751829295958268 -0.035254369371140855 -0.0037798785963436506 0.10384096593181945 -0.12690866457872954 -0.022199227768222137\u000aleaf_count=21 87755 791 141 60 618 1915 216 20 68 326 140 92 65 161 61 47 692 53 12182 70 163 82 102 36 680 57 218 33 26 552\u000ainternal_value=0 0.000118589 0.00292799 0.0746631 0.00744382 0.134714 -0.0192571 0.138609 0.193058 -0.0556127 -0.0198404 0.0732528 -0.140141 -0.000868485 -0.140218 0.000350171 0.157302 0.531102 -0.0107366 0.185016 0.310667 -0.0347175 0.0619914 -0.126686 -0.182884 -0.0194832 -0.203741 0.440632 -0.639771 -0.270633\u000ainternal_count=107443 107422 94076 4755 2238 2517 602 386 366 1620 13346 298 157 89321 774 88547 792 100 12555 373 303 1560 762 798 716 627 301 135 83 613\u000ashrinkage=0.1\u000a\u000a\u000aTree=30\u000anum_leaves=31\u000anum_cat=0\u000asplit_feature=4 4 0 0 2 0 3 4 4 0 0 1 0 4 1 4 0 0 1 2 1 1 3 3 3 3 1 3 1 1\u000asplit_gain=1.5572 3.18834 2.66744 3.15439 2.53868 3.9194 2.85153 2.43712 4.22556 2.90051 2.72197 2.83328 2.62793 2.63639 10.0354 6.74661 2.56829 2.59881 2.99842 2.49316 3.05509 4.26177 3.68556 3.09659 3.60819 3.362 3.30155 2.93786 2.78184 2.79665\u000athreshold=15.373113155364992 14.753562450408937 0.13420851528644565 0.14542508870363238 0.91901907324790966 0.066263329237699523 0.92908349633216869 13.476926326751711 13.289951801300051 0.11136487126350404 0.0067737584467977294 0.65976890921592724 0.98158225417137157 7.4751012325286874 0.41049532592296606 7.944568634033204 0.1239200457930565 0.17215143889188769 0.83679428696632396 0.85311853885650646 0.72536349296569835 0.71237859129905712 0.78280833363533031 0.65153133869171154 0.68352276086807262 0.72039946913719188 0.6717573106288911 0.83714851737022411 0.76308953762054454 0.77265751361846935\u000adecision_type=2 2 2 2 2 2 2 2 2 2 2 2 2 2 2 2 2 2 2 2 2 2 2 2 2 2 2 2 2 2\u000aleft_child=1 7 -3 -4 5 -2 -7 8 12 10 -10 -12 -1 14 -14 -15 -11 18 -18 20 21 23 -22 -9 -25 -26 -27 -24 -29 -30\u000aright_child=4 2 3 -5 -6 6 -8 19 9 16 11 -13 13 15 -16 -17 17 -19 -20 -21 22 -23 27 24 25 26 -28 28 29 -31\u000aleaf_value=0.00011060304609389083 0.033001733509835214 -0.012867973753062825 0.070664744693171522 0.00034291606248022577 -0.0096702436256643071 0.0063283958642156041 -0.064536185990991285 -0.058997440550881047 -0.022939363554645882 -0.04986403865081572 -0.044063359037162367 0.015188560210013455 -0.019444438081628778 -0.13834277834464845 0.1308843390826451 -0.018486414495003965 0.07031190418878823 -0.031789273381015448 -0.014204883769603761 -0.00026253708727610602 0.074292446640389656 -0.057425528272285711 -0.020925401550895294 0.062311404542190599 -0.057450630822102403 0.050751026275746097 -0.004247272272185511 0.037889146977734905 -0.021461030985809031 0.0212388123380409\u000aleaf_count=101382 275 1374 27 490 245 436 24 26 193 137 37 257 169 24 20 101 26 125 48 996 50 47 71 50 32 63 147 256 85 230\u000ainternal_value=0 -0.000722072 -0.0823358 0.0400798 0.0797115 0.138955 0.0261419 0.000752071 -0.000614049 -0.143731 -0.0449051 0.0768705 0.000542804 -0.183751 -0.0338021 -0.411681 -0.287147 -0.141695 0.156467 0.0692852 0.137433 -0.0112164 0.216115 0.0725076 0.131898 0.0302007 0.123111 0.175155 0.223379 0.0963447\u000ainternal_count=107443 106463 1891 517 980 735 460 104572 102519 823 487 294 101696 314 189 125 336 199 74 2053 1057 365 692 318 292 242 210 642 571 315\u000ashrinkage=0.1\u000a\u000a\u000aTree=31\u000anum_leaves=31\u000anum_cat=0\u000asplit_feature=1 1 0 0 0 3 2 0 1 3 2 4 1 1 3 0 4 0 0 0 0 4 4 0 0 1 2 0 3 0\u000asplit_gain=1.46585 2.25473 3.00964 5.6951 3.34385 4.51142 3.03402 2.42415 2.3266 3.61044 3.01412 4.68537 2.87413 5.06566 7.92694 4.2274 3.95687 2.85349 7.2881 3.6324 6.01244 2.93235 2.84269 4.2288 2.773 2.48234 2.54121 2.45353 4.26559 6.26536\u000athreshold=0.16077270358800891 0.20408877730369571 0.035529218614101417 0.084533959627151503 0.34602792561054235 0.37107095122337347 0.13519970327615741 0.007960146293044092 0.23575936257839206 0.3124509751796723 0.2224521338939667 4.8862321376800546 0.26659561693668371 0.25978800654411321 0.35133241117000585 0.00079877141979523014 4.2652311325073251 0.87844422459602367 0.93497639894485485 0.38123480975627905 0.56651943922042858 4.69354271888733 4.69354271888733 0.76812329888343822 0.2333008944988251 0.24446696788072589 0.2135753929615021 0.00209633621852845 0.46976405382156378 0.014983009081333877\u000adecision_type=2 2 2 2 2 2 2 2 2 2 2 2 2 2 2 2 2 2 2 2 2 2 2 2 2 2 2 2 2 2\u000aleft_child=-1 2 6 -4 5 -5 -2 -8 9 17 11 12 13 15 -15 25 -17 19 -19 21 -21 -3 -22 -24 -23 -10 -27 -18 29 -29\u000aright_child=1 8 3 4 -6 -7 7 -9 10 -11 -12 -13 -14 14 -16 16 27 18 -20 20 22 24 23 -25 -26 26 -28 28 -30 -31\u000aleaf_value=-0.01162196133569191 0.096331947595781439 -0.027982579463878506 -0.063920095302271177 0.077511729696116055 -0.0028756958619715967 -0.033417856362485336 0.010943970704851355 0.050629595569878505 -0.054056869598817482 -0.016080308584040182 -1.4559431066330491e-05 0.054733665966759749 0.050574145249311565 0.059049685586000468 -0.085645923054440437 0.10956583464145352 0.05615280857994788 -0.11741693742825499 0.019811424096953363 0.11326878014517408 0.064056335549822249 0.030106107529378031 0.028548459233904463 -0.086867676201624708 -0.030299698810966398 0.024182381665691671 -0.054309074298510909 -0.077522860580778633 0.071538750970520079 0.014151930327730553\u000aleaf_count=441 23 97 52 52 277 21 339 76 51 854 104200 95 54 21 55 20 53 25 41 34 29 128 35 20 40 59 23 37 36 155\u000ainternal_value=0 0.000479435 0.104144 -0.0210922 0.0711833 0.456293 0.219585 0.181925 -0.000337197 -0.0844251 0.000709831 0.135706 0.0664492 0.0199422 -0.457075 0.10342 0.234777 0.061024 -0.324078 0.127241 0.419912 -0.00274213 0.132655 -0.134756 0.157318 -0.193832 0.0219301 0.173563 0.0833492 -0.035312\u000ainternal_count=107443 107002 840 402 350 73 438 415 106162 1303 104859 659 564 510 76 434 301 449 66 383 118 265 84 55 168 133 82 281 228 192\u000ashrinkage=0.1\u000a\u000a\u000aTree=32\u000anum_leaves=31\u000anum_cat=0\u000asplit_feature=0 0 3 1 3 2 4 0 0 0 0 2 2 0 3 1 1 1 3 0 4 1 0 0 4 1 2 2 2 3\u000asplit_gain=1.42617 4.3501 2.74118 4.53901 2.67372 6.52738 7.47495 7.19065 5.40857 4.55541 4.17635 3.93339 4.89076 3.71021 3.52308 6.60433 5.04837 5.63406 3.96647 3.89101 6.67275 6.50895 14.4268 5.33464 5.18447 4.71295 3.68946 5.81554 3.98608 5.0324\u000athreshold=0.11136487126350404 0.10562146827578546 0.94679802656173717 0.79276248812675487 0.4262657910585404 0.29706324636936193 5.2285261154174814 0.65518072247505199 0.24108640849590304 0.17488040775060656 0.21793548762798312 0.2224521338939667 0.27237544953823095 0.1254459619522095 0.46118913590908056 0.36676780879497534 0.33641628921031957 0.32282038033008581 0.46976405382156378 0.49343204498291021 7.6293122768402108 0.39461085200309759 0.22162577509880069 0.6052212417125703 8.0080833435058612 0.32691738009452825 0.56985276937484752 0.47430017590522772 0.45877005159854894 0.44169881939888006\u000adecision_type=2 2 2 2 2 2 2 2 2 2 2 2 2 2 2 2 2 2 2 2 2 2 2 2 2 2 2 2 2 2\u000aleft_child=1 -1 4 -4 -2 6 8 9 11 13 -11 -6 -13 -8 15 16 17 -7 19 20 21 25 -23 -21 -22 -16 27 28 29 -17\u000aright_child=2 -3 3 -5 5 14 7 -9 -10 10 -12 12 -14 -15 18 26 -18 -19 -20 23 24 22 -24 -25 -26 -27 -28 -29 -30 -31\u000aleaf_value=0.00046011782675367562 0.0040940188646615338 0.012399510046874201 -0.083854370370607625 0.0085148781246664682 -0.093466197442760524 0.0045741201896866614 -0.035230733571523072 -0.094716544617773096 0.028203341474568447 -0.07258099301146291 -0.020411713869468936 0.020062227845945396 -0.091013524929285577 0.050432225857124771 -0.0066968684329690113 -0.046885072268748905 0.030623112837375038 -0.076523563148223089 -0.00067245337027140961 0.13798382909289394 -0.12902634936168189 -0.13889797185809036 0.049825371904537875 0.029902810037623347 -0.01087514600873166 0.10930806611607223 -0.061968985896123055 0.0016369937982949894 -0.08362248055137661 -0.0016203787899461465\u000aleaf_count=51591 4373 1263 42 44 28 156 34 71 168 91 189 65 21 50 20 205 221 44 47744 22 21 24 50 109 51 47 79 378 53 189\u000ainternal_value=0 0.0074438 -0.00716436 -0.365692 -0.00660265 -0.0107408 -0.200318 -0.36476 0.0535991 -0.251129 -0.373746 -0.282876 -0.0707903 0.157508 -0.00798674 -0.109862 0.0974643 -0.133121 -0.00518036 0.20901 0.0421412 0.295133 -0.113916 0.480656 -0.453876 0.747015 -0.206286 -0.166707 -0.321069 -0.251766\u000ainternal_count=107443 52854 54589 86 54503 50130 717 435 282 364 280 114 86 84 49413 1325 421 200 48088 344 213 141 74 131 72 67 904 825 447 394\u000ashrinkage=0.1\u000a\u000a\u000aTree=33\u000anum_leaves=31\u000anum_cat=0\u000asplit_feature=3 0 0 4 0 4 4 1 1 2 4 1 0 1 2 0 2 0 0 3 2 3 1 1 2 4 1 0 3 4\u000asplit_gain=1.44964 3.90721 10.3984 3.20485 3.17974 2.57894 4.99304 4.05471 4.94244 4.05901 3.9276 5.13719 4.85547 4.6659 4.08529 4.03944 4.68738 3.81756 4.32014 5.55858 3.79219 3.64784 3.51052 3.48373 3.45667 8.03981 4.78365 4.0958 4.27949 3.35559\u000athreshold=0.92484432458877575 0.035529218614101417 0.060650782659649856 12.577472209930422 0.078045438975095763 12.181786060333254 11.53793239593506 0.72536349296569835 0.78986307978630077 0.78332427144050609 11.762472629547121 0.6280096471309663 0.15886751562356952 0.63575798273086559 0.72137445211410534 0.38123480975627905 0.7696342170238496 0.32329493761062628 0.18310170620679858 0.74452555179595958 0.71510520577430736 0.78787097334861766 0.78041139245033275 0.77654731273651134 0.80292716622352611 12.043741703033449 0.75532299280166637 0.11136487126350404 0.84914991259574901 12.235755443573\u000adecision_type=2 2 2 2 2 2 2 2 2 2 2 2 2 2 2 2 2 2 2 2 2 2 2 2 2 2 2 2 2 2\u000aleft_child=5 -2 -3 4 -4 6 -1 9 21 10 12 14 -8 -13 20 16 -14 18 19 -16 -12 -9 23 24 26 -26 27 -23 -29 -7\u000aright_child=1 2 3 -5 -6 29 7 8 -10 -11 11 13 15 -15 17 -17 -18 -19 -20 -21 -22 22 -24 -25 25 -27 -28 28 -30 -31\u000aleaf_value=-0.00010104794558975848 -0.0016792706462910396 0.053837221662599459 0.0034626534670240613 -0.0027595925595803243 0.078502371986883077 -0.02301151431844663 0.031326534322759898 -0.053995175998229422 0.015702426574591147 0.047589976186777599 -0.022959098246268773 0.070698527728946539 -0.030580092212709784 0.0071110228125497556 -0.095820336524566174 0.02654988019358406 0.054408242792850996 -0.07506115150079129 0.05232443448108353 -0.0070773882889842241 0.075450804257043536 0.013612929388300285 -0.037415843619504591 0.034124504247459365 -0.010616326002080075 -0.13414279555384118 0.040384920641154155 -0.057592615089435306 -0.0040333406320870041 -0.0023925841229206347\u000aleaf_count=89340 1346 217 50 561 42 326 607 60 618 124 32 49 167 1094 39 148 31 61 30 104 31 326 114 106 556 22 130 83 215 10814\u000ainternal_value=0 0.0508642 0.156059 0.0294835 0.377285 -0.00105807 0.00234164 0.0658877 0.00364573 0.121352 0.102919 0.0368262 0.203575 0.0982466 -0.197868 0.0144114 -0.172899 -0.31978 -0.167672 -0.312904 0.25546 -0.0545781 -0.0358437 -0.00897925 -0.0367771 -0.153011 0.0529266 -0.0199243 -0.189309 -0.0300209\u000ainternal_count=107443 2216 870 653 92 105227 94087 4747 2230 2517 2393 1440 953 1143 297 346 198 234 173 143 63 1612 1552 1438 1332 578 754 624 298 11140\u000ashrinkage=0.1\u000a\u000a\u000aTree=34\u000anum_leaves=31\u000anum_cat=0\u000asplit_feature=3 0 0 0 0 0 0 2 1 1 2 1 0 0 3 2 3 4 3 2 3 3 3 3 0 3 1 4 1 0\u000asplit_gain=1.4044 1.89393 3.4621 3.14838 2.06311 3.20784 4.07632 2.02182 1.87323 1.86873 6.41092 5.62701 6.80155 5.89144 5.40987 6.71379 4.53188 4.49895 3.90414 3.68653 3.39649 3.20703 3.09219 3.02322 7.59183 5.37597 4.47361 6.27886 4.04441 8.03043\u000athreshold=0.18282539397478106 0.20337073504924777 0.15577436238527301 0.48446905612945562 0.13092109560966494 0.048082020133733756 0.00079877141979523014 0.16262384504079822 0.18740902841091159 0.32282038033008581 0.28858038783073431 0.31872409582138067 0.058861717581748969 0.45290601253509527 0.46118913590908056 0.27237544953823095 0.48168236017227178 4.9716439247131357 0.37107095122337347 0.32320266962051397 0.43228562176227575 0.39918598532676702 0.52901130914688121 0.55751988291740429 0.014133397024124862 0.53776493668556224 0.27900344133377081 6.0767641067504892 0.31541128456592565 0.01124266115948558\u000adecision_type=2 2 2 2 2 2 2 2 2 2 2 2 2 2 2 2 2 2 2 2 2 2 2 2 2 2 2 2 2 2\u000aleft_child=1 2 4 -3 5 6 -1 8 -5 11 14 23 18 22 20 -16 -17 -12 -13 -15 21 -11 -14 25 -25 -2 -27 28 29 -28\u000aright_child=9 3 -4 7 -6 -7 -8 -9 -10 10 17 12 13 19 15 16 -18 -19 -20 -21 -22 -23 -24 24 -26 26 27 -29 -30 -31\u000aleaf_value=-0.046408732837534952 0.0013423644304177676 0.068826732621905889 -0.10542976057840908 -0.0058987057904286815 0.042894815371229876 -0.082954861019747403 0.039777015305180734 -0.044400695709307846 0.054894204371958744 -0.0042634683708703573 -0.078906246003345948 -0.075085826189918992 0.087907628459802711 0.066276694897524899 0.056566604654428657 -0.13642390056182221 -0.049694458138522107 -8.8213590852476975e-05 0.0078150063200186394 -0.01819550165391394 0.0412926156174801 -0.091652874322950745 0.022569423451457338 0.027310482245821888 -0.061577098564434524 0.11020777497918768 0.02765196568733197 0.092839402937530402 0.06006326047448627 -0.072672314229582702\u000aleaf_count=51 8113 24 22 179 21 32 40 49 23 85 29 27 113 30 20 30 123 97705 145 67 51 21 39 65 95 26 83 41 42 52\u000ainternal_value=0 -0.113718 -0.286828 -0.0125526 -0.173738 -0.272202 -0.0796041 -0.078369 0.0102499 0.000470467 -0.00206027 0.028199 0.254086 0.465635 -0.280544 -0.524502 -0.667005 -0.00111691 -0.0518911 0.0796752 -0.0113778 -0.215744 0.71134 0.0170142 -0.255743 0.0222373 0.31517 0.221697 0.0582604 -0.110633\u000ainternal_count=107443 441 166 275 144 123 91 251 202 107002 98064 8938 421 249 330 173 153 97734 172 97 157 106 152 8517 160 8357 244 218 177 135\u000ashrinkage=0.1\u000a\u000a\u000aTree=35\u000anum_leaves=31\u000anum_cat=0\u000asplit_feature=4 4 1 2 4 0 0 2 3 3 1 3 3 0 1 0 4 0 1 1 1 1 4 2 3 1 0 3 3 0\u000asplit_gain=1.40893 6.0859 5.29781 4.55939 4.51592 6.4338 6.36317 4.72007 4.29305 8.9635 5.17006 5.00387 10.1929 9.93501 10.2266 7.28874 4.94356 4.87628 4.47812 6.64766 6.47749 6.90067 6.52257 6.74307 5.2635 6.21834 4.82558 4.8034 4.68507 4.77578\u000athreshold=8.1203732490539569 7.9859313964843759 0.4521364718675614 0.47124840319156652 7.9235575199127206 0.18561545759439471 0.90292331576347362 0.59202572703361522 0.70810291171073925 0.69572263956069957 0.58588862419128429 0.6611732840538026 0.6382245421409608 0.0084885261021554487 0.4409646093845368 0.0012889905483461919 6.4959332942962655 0.0063444816041737804 0.43376389145851141 0.41848559677600866 0.48073200881481176 0.48397363722324377 7.5601847171783456 0.4814410954713822 0.59187868237495433 0.47676210105419164 0.00023216216504806655 0.49968713521957403 0.46562187373638159 0.13844680041074756\u000adecision_type=2 2 2 2 2 2 2 2 2 2 2 2 2 2 2 2 2 2 2 2 2 2 2 2 2 2 2 2 2 2\u000aleft_child=1 4 -3 -2 8 7 -7 -6 9 11 -11 12 18 14 -13 -14 -17 -18 19 -1 22 27 23 26 25 28 -20 -22 29 -24\u000aright_child=3 2 -4 -5 5 6 -8 -9 -10 10 -12 13 15 -15 -16 16 17 -19 20 -21 21 -23 24 -25 -26 -27 -28 -29 -30 -31\u000aleaf_value=-0.0006810702709412243 0.06342099588267916 0.0040533077525336065 -0.016707997187861569 0.000515207935668159 0.00051661457638641959 0.033733869379838473 -0.079067441158600885 -0.086860362056492654 -0.017359772690471009 0.031386824375392863 -0.049362710569371873 -0.044347146017031297 0.060808074043081563 -0.014183750275137125 0.042013966653422684 -0.024647208033651086 -0.022173648747975148 0.015134025481014148 -0.086842072113159766 0.012664397982398072 0.13113108849118141 -0.0010645485305391274 -0.0054458192791879403 0.10314413849218187 -0.052975827100007311 0.058173824291073289 -0.0072431341381692651 0.028204928252137419 -0.012753132519563712 -0.10408227737866436\u000aleaf_count=21957 47 692 1705 67631 361 479 21 27 606 475 34 70 120 2193 256 154 151 1967 31 1604 21 3015 32 22 237 41 2981 137 325 51\u000ainternal_value=0 -0.00944317 -0.107174 0.00558338 -0.00316645 0.138352 0.289633 -0.0548182 -0.00658946 -0.00376535 0.259891 -0.00756353 -0.000966748 -0.0935285 0.233501 0.124823 0.0995693 0.12474 -0.0108548 0.00228673 -0.0557057 0.0107101 -0.112353 -0.0725127 -0.28855 -0.161203 -0.0805728 0.418441 -0.235837 -0.660314\u000ainternal_count=107443 39765 2397 67678 37368 888 500 388 36480 35874 509 35365 32846 2519 326 2392 2272 2118 30454 23561 6893 3173 3720 3034 686 449 3012 158 408 83\u000ashrinkage=0.1\u000a\u000a\u000aTree=36\u000anum_leaves=31\u000anum_cat=0\u000asplit_feature=1 3 3 3 4 4 2 0 0 3 4 1 4 4 4 3 0 0 4 4 0 1 4 0 1 3 0 0 1 0\u000asplit_gain=1.35694 2.95588 2.28321 6.80412 5.79815 7.87181 5.45684 4.91532 4.87393 4.68891 8.11573 6.65168 6.86152 6.16758 5.54118 5.13803 6.90029 8.41848 8.38476 8.25915 7.5163 8.33239 7.71555 7.27475 6.43644 6.06323 5.89899 12.4913 7.80662 5.19181\u000athreshold=0.83289334177970897 0.96367138624191295 0.82903301715850841 0.84536564350128185 10.472464561462404 10.366043567657472 0.67237970232963573 0.30231842398643499 0.24108640849590304 0.79702913761138927 9.8700103759765643 0.56341245770454418 9.848307132720949 12.545682907104494 9.0977001190185565 0.80660387873649608 0.069922115653753295 0.32329493761062628 10.090606212615969 11.958784580230715 0.35985554754734045 0.67254197597503673 10.707890033721926 0.044083319604396827 0.70938393473625194 0.80052143335342418 0.0023881267989054327 0.007960146293044092 0.69149425625801098 0.0029511055909097199\u000adecision_type=2 2 2 2 2 2 2 2 2 2 2 2 2 2 2 2 2 2 2 2 2 2 2 2 2 2 2 2 2 2\u000aleft_child=2 -2 9 4 5 6 -4 -5 -7 -1 11 -11 14 15 -13 16 18 19 -12 24 21 -19 -22 -20 25 -18 28 29 -17 -28\u000aright_child=1 -3 3 7 -6 8 -8 -9 -10 10 13 12 -14 -15 -16 26 17 20 23 -21 22 -23 -24 -25 -26 -27 27 -29 -30 -31\u000aleaf_value=0.00016233633913284237 -0.004776672151660567 0.028394335284999322 0.10588285939329133 0.0024924626673651328 0.017466342278098294 -0.10153180137386193 -0.00036167269059460332 -0.0081471027859951507 -0.012491721239189211 -0.12419429323274317 0.037417563324467516 0.07376463095308429 -0.092520468591082039 -0.024237108018852864 -0.018346083761071268 -0.057788154252177343 0.061370360076344624 -0.036836591270012195 -0.024978420965132347 0.13152784425984129 0.02523684752962051 -0.18475344733181448 -0.069504471041066732 -0.087415481984020785 -0.028450968538447807 0.0057556651432350558 0.0089283526625889304 0.0030832872240233017 0.073395582161906739 0.092788695336576243\u000aleaf_count=83122 3653 112 21 9820 1839 51 290 2127 48 25 60 27 49 474 884 115 92 39 252 21 87 25 57 107 187 541 45 3158 23 92\u000ainternal_value=0 -0.0377629 0.00135178 0.0250158 0.1264 -0.0892006 0.0675885 0.00595611 -0.581805 -0.0023854 -0.0548456 -0.222047 -0.19546 -0.0241796 -0.156131 -0.00304576 -0.102258 -0.015631 -0.320179 0.0736916 -0.375974 -0.946182 -0.122261 -0.436324 0.0419539 0.138424 0.0394243 0.0563289 -0.369248 0.653832\u000ainternal_count=107443 3765 103678 14196 2249 410 311 11947 99 89482 6360 985 960 5375 911 4901 1468 1049 419 841 208 64 144 359 820 633 3433 3295 138 137\u000ashrinkage=0.1\u000a\u000a\u000aTree=37\u000anum_leaves=31\u000anum_cat=0\u000asplit_feature=1 0 4 3 1 2 2 2 4 0 1 1 3 4 3 4 1 1 1 3 3 3 3 4 1 3 1 2 3 3\u000asplit_gain=1.32997 1.23581 2.13572 3.20017 2.99909 2.02677 3.94469 3.97431 4.07587 6.45112 10.5068 11.0607 6.26718 3.71504 3.64504 3.16576 3.94474 6.10633 9.35106 6.10447 3.71575 3.52805 4.01298 3.96416 4.78908 3.03853 3.10269 4.49463 5.1064 4.06864\u000athreshold=1.0000000180025095e-35 0.84976798295974743 13.650350570678713 0.77925249934196483 0.70742797851562511 0.75647282600402843 0.68913128972053539 0.65059572458267223 8.6846094131469744 0.90292331576347362 0.47676210105419164 0.50979265570640575 0.5437801480293275 11.828789234161379 0.51398041844367992 8.040049076080324 0.54037395119667064 0.47288379073143011 0.45659413933753973 0.66879761219024669 0.64209666848182689 0.55360832810401928 0.4744334369897843 6.0026695728302011 0.37206219136714941 0.4262657910585404 0.24446696788072589 0.29706324636936193 0.29414081573486334 0.36101667582988745\u000adecision_type=2 2 2 2 2 2 2 2 2 2 2 2 2 2 2 2 2 2 2 2 2 2 2 2 2 2 2 2 2 2\u000aleft_child=-1 -2 3 5 -5 6 7 8 15 12 14 -12 -10 -8 -11 21 17 18 -17 -18 -19 22 25 -24 -25 26 -3 29 -29 -28\u000aright_child=1 2 -4 4 -6 -7 13 -9 9 10 11 -13 -14 -15 -16 16 19 20 -20 -21 -22 -23 23 24 -26 -27 27 28 -30 -31\u000aleaf_value=-0.051885140548070821 0.00012670890150649921 -0.013987547881062434 0.028030905592831303 -0.085545910511229839 0.0041403173930398786 0.053173838283483058 -0.08213695418702574 0.029672223710296125 -0.12038686670743975 0.11155629511026216 -0.11502873053447001 0.0089595797482645116 -0.030560882634584875 0.0054671788144866462 0.023713297130594464 0.032033419561410544 -0.10841714537512655 0.13487524299444104 -0.11466465376940425 0.005924268612730964 0.029357643856247881 -0.02585076484043259 -0.040088516727006425 0.078273457344742753 0.012808465517608645 -0.02707847460313674 0.015550107997375016 -0.093638276059685804 0.0016124394518103693 0.081677854749952428\u000aleaf_count=21 104374 467 82 38 25 25 50 141 43 26 49 71 113 32 71 135 21 32 20 190 23 282 36 63 156 227 139 24 416 51\u000ainternal_value=0 0.000104804 -0.0396748 -0.0484709 -0.497389 -0.038818 -0.0437316 -0.031062 -0.0484711 -0.242767 -0.0187089 -0.415752 -0.552978 -0.47811 0.472334 -0.016751 0.140083 0.334384 0.130914 -0.0533688 0.907565 -0.0522561 -0.0153567 0.214576 0.315812 -0.0597408 -0.0160588 0.0757049 -0.035668 0.333015\u000ainternal_count=107443 107422 3048 2966 63 2903 2878 2796 2655 373 217 120 156 82 97 2282 421 210 155 211 55 1861 1579 255 219 1324 1097 630 440 190\u000ashrinkage=0.1\u000a\u000a\u000aTree=38\u000anum_leaves=31\u000anum_cat=0\u000asplit_feature=4 3 4 1 1 4 2 1 3 0 1 4 1 1 4 3 1 1 4 1 4 4 3 1 3 0 2 1 2 1\u000asplit_gain=1.22995 6.9859 4.1261 8.85368 16.097 5.79136 6.05647 5.57452 10.3358 5.14428 4.71486 4.00947 5.84009 4.32451 3.65977 3.45306 5.60813 5.58911 5.09971 5.38729 5.10162 10.8224 4.14574 4.00786 3.96152 5.91393 4.12824 4.3378 4.04187 5.17737\u000athreshold=8.8933501243591326 0.44169881939888006 8.6237320899963397 0.53858628869056713 0.5520748794078828 8.4446077346801776 0.59202572703361522 0.67254197597503673 0.68352276086807262 0.025004781782627109 0.50478374958038341 8.9112477302551287 0.61129510402679454 0.5994127392768861 8.8642830848693865 0.48504360020160681 0.40035818517208105 0.41336522996425634 9.1648473739624041 0.56182205677032482 8.9940257072448748 8.9368219375610369 0.45162978768348699 0.58257028460502636 0.75100424885749828 0.0023881267989054327 0.7256353795528413 0.64813435077667247 0.82146993279457103 0.71738818287849437\u000adecision_type=2 2 2 2 2 2 2 2 2 2 2 2 2 2 2 2 2 2 2 2 2 2 2 2 2 2 2 2 2 2\u000aleft_child=2 -2 5 10 9 6 -1 -8 -9 -5 -4 12 13 -3 -12 18 -17 -18 20 22 21 -13 -20 -19 25 26 27 -25 29 -27\u000aright_child=1 11 3 4 -6 -7 7 8 -10 -11 14 15 -14 -15 -16 16 17 23 19 -21 -22 -23 -24 24 -26 28 -28 -29 -30 -31\u000aleaf_value=-0.00049419836888742348 0.093396859157687584 0.017453630230748793 -0.0055851234182857064 -0.12107711055348701 -0.0066118019515282707 0.0078881585458768725 -0.025729070117776278 0.0922453161315238 -0.04559201425197057 -0.043135656714756929 0.019699846231807573 -0.092774752723095558 0.11872041699787779 -0.067926009840209606 -0.030378325930467992 -0.065917791951412744 0.093630090612903866 0.0036986755396157707 -0.061057044036016334 -0.064458923669042378 -0.066812300816479139 0.098125478650900266 0.033068977404355403 0.030154661081767026 0.00060806909442401259 -0.0039850014284234557 0.089259084927418089 -0.06893051111087771 0.025459784545572264 -0.020533233643995924\u000aleaf_count=44577 33 506 1000 37 1602 3310 626 47 41 409 685 22 22 25 64 51 26 12707 22 38 120 26 133 126 33080 7024 40 21 171 852\u000ainternal_value=0 0.00664194 -0.00692737 -0.0704844 -0.159778 -0.00196069 -0.00786963 -0.190977 0.281833 -0.495964 0.0341727 0.00609051 0.176277 0.134123 0.154246 0.004365 0.00567161 0.00629985 -0.191156 0.03127 -0.446683 0.105049 0.197435 0.00585183 -0.00374908 -0.0430765 0.315125 0.156534 -0.0511334 -0.05773\u000ainternal_count=107443 55045 52398 3797 2048 48601 45291 714 88 446 1749 55012 553 531 749 54459 54098 54047 361 193 168 48 155 54021 41314 8234 187 147 8047 7876\u000ashrinkage=0.1\u000a\u000a\u000aTree=39\u000anum_leaves=31\u000anum_cat=0\u000asplit_feature=0 2 4 1 4 1 1 3 3 1 2 0 0 0 0 2 1 0 2 2 2 3 3 2 2 1 2 3 0 2\u000asplit_gain=1.26483 3.77353 2.5761 8.08059 5.16954 1.53419 1.51627 4.18524 1.89416 1.41724 5.40633 7.5664 5.88932 6.58821 5.57803 5.04559 4.82219 5.77385 4.79241 5.24976 4.73367 5.00626 3.90032 3.69678 4.49458 3.41204 3.24795 3.23127 6.00712 3.39929\u000athreshold=0.98158225417137157 0.75922381877899181 7.4751012325286874 0.41049532592296606 7.944568634033204 0.20408877730369571 0.48976652324199682 0.7266632914543153 0.46976405382156378 0.32282038033008581 0.3147099912166596 0.029163816012442115 0.1239200457930565 0.19686558842658999 0.0155019648373127 0.31894859671592718 0.31872409582138067 0.058861717581748969 0.30995211005210882 0.29706324636936193 0.32320266962051397 0.53189769387245189 0.46976405382156378 0.27237544953823095 0.30995211005210882 0.36026029288768774 0.27237544953823095 0.53503632545471203 0.06817547976970674 0.30138687789440161\u000adecision_type=2 2 2 2 2 2 2 2 2 2 2 2 2 2 2 2 2 2 2 2 2 2 2 2 2 2 2 2 2 2\u000aleft_child=9 2 3 5 -4 -2 8 -8 -6 16 11 14 25 -14 26 -12 -1 23 19 -15 21 -19 -22 -18 -25 27 -11 28 -13 -30\u000aright_child=1 -3 4 -5 6 -7 7 -9 -10 10 15 12 13 18 -16 -17 17 20 -20 -21 22 -23 -24 24 -26 -27 -28 -29 29 -31\u000aleaf_value=0.0014165750244931634 0.011303037746168558 0.068266981860672482 -0.12715540850718957 0.11730804064088447 -0.043474439430841817 -0.03039300162302801 -0.11382226273862568 0.0012771090056964722 0.03721331391498426 0.060073839119050093 0.028121880883498426 0.0070575804892578061 -0.067843794562797516 -0.01686891631801684 -0.060405956844782442 -6.8718722009714889e-05 -0.07571407100127249 0.087932102417890873 -0.044815410939169818 0.040809869853425169 -0.0099052776304812788 -0.0045042441477525499 0.080589603563379617 0.034568307008124882 -0.037739176427145846 0.07429587543732856 -0.019887844282287563 -0.018556283159388062 0.043512312726241356 0.1414893918299914\u000aleaf_count=8829 52 22 24 20 20 117 22 32 29 21 255 164 74 128 147 96023 25 108 79 125 81 30 25 92 55 43 654 87 37 23\u000ainternal_value=0 -0.123459 -0.180051 -0.0311562 -0.403902 -0.17572 -0.21092 -0.445363 0.0451576 0.000390663 -0.00185164 -0.117887 0.0260401 -0.138511 -0.250972 6.20702e-05 0.0241089 0.234813 -0.0181144 0.116364 0.433189 0.6778 0.11472 -0.0457967 0.0751803 0.214628 -0.173999 0.141598 0.268725 0.810563\u000ainternal_count=107443 338 316 189 127 169 103 54 49 107105 97860 1582 760 406 822 96278 9245 416 332 253 244 138 106 172 147 354 675 311 224 60\u000ashrinkage=0.1\u000a\u000a\u000aTree=40\u000anum_leaves=31\u000anum_cat=0\u000asplit_feature=1 3 3 0 1 0 1 0 0 4 2 2 0 4 3 1 1 0 0 1 1 1 0 4 0 0 3 3 0 3\u000asplit_gain=1.16238 1.19972 4.24173 5.46219 4.70418 3.47748 4.42804 4.75237 5.92711 3.60657 6.80176 5.94524 5.68853 5.31097 8.15393 7.13482 4.31221 4.00292 7.66233 5.42283 9.58073 6.26964 5.76202 7.93468 3.89694 5.34865 3.7163 3.63886 6.35851 3.4806\u000athreshold=1.0000000180025095e-35 0.55751988291740429 0.55580687522888195 0.024623042903840545 0.6387767791748048 0.00079877141979523014 0.33041009306907659 0.10932501032948495 0.28553630411624914 8.4446077346801776 0.55000540614128124 0.55654415488243114 0.93497639894485485 8.4180798530578631 0.61289137601852428 0.6063024401664735 0.42587859928607946 0.81916189193725597 0.8311879336833955 0.52020594477653515 0.43376389145851141 0.44992710649967199 0.86478322744369518 7.5197191238403329 0.29677286744117742 0.074706885963678374 0.59641069173812877 0.67602944374084484 0.40680232644081121 0.56074780225753795\u000adecision_type=2 2 2 2 2 2 2 2 2 2 2 2 2 2 2 2 2 2 2 2 2 2 2 2 2 2 2 2 2 2\u000aleft_child=-1 2 4 -4 -2 -3 7 29 -9 12 16 -12 13 17 -15 24 -11 -8 26 20 -20 -22 23 -23 25 -16 -19 -18 -29 -7\u000aright_child=1 5 3 -5 -6 6 9 8 -10 10 11 -13 -14 14 15 -17 27 18 19 -21 21 22 -24 -25 -26 -27 -28 28 -30 -31\u000aleaf_value=-0.048760425041724953 0.00099606538097281381 0.011177178379823363 -0.026880812392792237 0.030518857196599032 -0.054287479071280988 -0.079976964826678154 -0.0024711272640692752 -0.12479841313034741 -0.021496014527608204 -0.02175535498095588 -0.021351825777702307 0.00032349392079418781 -0.063705253705168011 -0.11867193069400775 -0.021706593295004111 -0.1130870375138773 0.013787133282135234 0.15858813173882816 0.029058865799238588 0.027465769842286786 -0.1449573511503057 0.10893261139525755 -0.067139575550248146 -0.044163342115408281 -0.024297161325136821 0.071841221640377234 0.040672529994508794 0.053797572285620404 -0.059296550861555469 0.0032387602520348641\u000aleaf_count=21 25035 1059 81 377 62 23 21513 37 56 103 512 56526 62 35 49 28 637 20 123 285 22 23 71 33 185 49 23 210 22 161\u000ainternal_value=0 9.58103e-05 0.0120774 0.203482 0.00859638 -0.00365089 -0.00513075 -0.257818 -0.627171 -0.00425897 0.00412283 0.00128122 -0.0257389 -0.024084 -0.270405 -0.167158 0.170241 -0.0202389 0.141866 0.0783148 -0.122559 -0.463764 -0.292904 0.186971 -0.0715789 0.251067 0.955206 0.216126 0.430711 -0.0716435\u000ainternal_count=107443 107422 25555 458 25097 81867 80808 277 93 80531 58010 57038 22521 22459 346 311 972 22113 600 557 272 149 127 56 283 98 43 869 232 184\u000ashrinkage=0.1\u000a\u000a\u000aend of trees\u000a\u000afeature importances:\u000aacousticness=294\u000adanceability=273\u000abeat_strength=257\u000adyn_range_mean=225\u000abounciness=181\u000a\u000aparameters:\u000a[boosting: gbdt]\u000a[objective: binary]\u000a[metric: none,binary]\u000a[tree_learner: serial]\u000a[device_type: cpu]\u000a[data: ]\u000a[valid: ]\u000a[num_iterations: 100]\u000a[learning_rate: 0.1]\u000a[num_leaves: 31]\u000a[num_threads: -1]\u000a[max_depth: -1]\u000a[min_data_in_leaf: 20]\u000a[min_sum_hessian_in_leaf: 0.001]\u000a[bagging_fraction: 1]\u000a[bagging_freq: 0]\u000a[bagging_seed: 3]\u000a[feature_fraction: 1]\u000a[feature_fraction_seed: 2]\u000a[early_stopping_round: 0]\u000a[max_delta_step: 0]\u000a[lambda_l1: 0]\u000a[lambda_l2: 0]\u000a[min_gain_to_split: 0]\u000a[drop_rate: 0.1]\u000a[max_drop: 50]\u000a[skip_drop: 0.5]\u000a[xgboost_dart_mode: 0]\u000a[uniform_drop: 0]\u000a[drop_seed: 4]\u000a[top_rate: 0.2]\u000a[other_rate: 0.1]\u000a[min_data_per_group: 100]\u000a[max_cat_threshold: 32]\u000a[cat_l2: 10]\u000a[cat_smooth: 10]\u000a[max_cat_to_onehot: 4]\u000a[top_k: 20]\u000a[monotone_constraints: ]\u000a[feature_contri: ]\u000a[forcedsplits_filename: ]\u000a[refit_decay_rate: 0.9]\u000a[verbosity: -1]\u000a[max_bin: 255]\u000a[min_data_in_bin: 3]\u000a[bin_construct_sample_cnt: 200000]\u000a[histogram_pool_size: -1]\u000a[data_random_seed: 1]\u000a[output_model: LightGBM_model.txt]\u000a[snapshot_freq: -1]\u000a[input_model: ]\u000a[output_result: LightGBM_predict_result.txt]\u000a[initscore_filename: ]\u000a[valid_data_initscores: ]\u000a[pre_partition: 0]\u000a[enable_bundle: 1]\u000a[max_conflict_rate: 0]\u000a[is_enable_sparse: 1]\u000a[sparse_threshold: 0.8]\u000a[use_missing: 1]\u000a[zero_as_missing: 0]\u000a[two_round: 0]\u000a[save_binary: 0]\u000a[enable_load_from_binary_file: 1]\u000a[header: 0]\u000a[label_column: ]\u000a[weight_column: ]\u000a[group_column: ]\u000a[ignore_column: ]\u000a[categorical_feature: ]\u000a[predict_raw_score: 0]\u000a[predict_leaf_index: 0]\u000a[predict_contrib: 0]\u000a[num_iteration_predict: -1]\u000a[pred_early_stop: 0]\u000a[pred_early_stop_freq: 10]\u000a[pred_early_stop_margin: 10]\u000a[convert_model_language: ]\u000a[convert_model: gbdt_prediction.cpp]\u000a[num_class: 1]\u000a[is_unbalance: 0]\u000a[scale_pos_weight: 1]\u000a[sigmoid: 1]\u000a[boost_from_average: 1]\u000a[reg_sqrt: 0]\u000a[alpha: 0.9]\u000a[fair_c: 1]\u000a[poisson_max_delta_step: 0.7]\u000a[tweedie_variance_power: 1.5]\u000a[max_position: 20]\u000a[label_gain: ]\u000a[metric_freq: 1]\u000a[is_provide_training_metric: 0]\u000a[eval_at: ]\u000a[num_machines: 1]\u000a[local_listen_port: 12400]\u000a[time_out: 120]\u000a[machine_list_filename: ]\u000a[machines: ]\u000a[gpu_platform_id: -1]\u000a[gpu_device_id: -1]\u000a[gpu_use_dp: 0]\u000a\u000aend of parameters\u000a\u000apandas_categorical:[]\u000a
p358
sS'_Booster__num_inner_eval'
p359
I1
sS'_Booster__set_objective_to_none'
p360
I00
sS'network'
p361
I00
sS'_Booster__train_data_name'
p362
g178
sS'_Booster__num_dataset'
p363
I0
sS'pandas_categorical'
p364
(lp365
sS'_Booster__need_reload_eval_info'
p366
I00
sS'params'
p367
(dp368
g6
I31
sg7
F0.0
sg8
I-1
sS'colsample_bytree'
p369
F1.0
sS'verbose'
p370
I-1
sS'subsample_for_bin'
p371
I200000
sS'random_state'
p372
NsS'learning_rate'
p373
F0.1
sS'min_child_weight'
p374
F0.001
sS'min_split_gain'
p375
F0.0
sS'subsample'
p376
F1.0
sS'reg_lambda'
p377
F0.0
sS'subsample_freq'
p378
I0
sS'objective'
p379
S'binary'
p380
sS'min_child_samples'
p381
I20
sS'max_depth'
p382
I-1
sS'metric'
p383
c__builtin__
set
p384
((lp385
g380
aNatp386
Rp387
sS'boosting_type'
p388
S'gbdt'
p389
ssS'name_valid_sets'
p390
(lp391
g11
asS'_Booster__num_class'
p392
I1
sS'_Booster__name_inner_eval'
p393
(lp394
g16
asbsS'_objective'
p395
g380
sS'_classes'
p396
cnumpy.core.multiarray
_reconstruct
p397
(cnumpy
ndarray
p398
(I0
tp399
S'b'
p400
tp401
Rp402
(I1
(I2
tp403
g19
(S'i4'
p404
I0
I1
tp405
Rp406
(I3
S'<'
p407
NNNI-1
I-1
I0
tp408
bI00
S'\x00\x00\x00\x00\x01\x00\x00\x00'
p409
tp410
bsS'n_estimators'
p411
I100000
sg378
I0
sS'_n_classes'
p412
I2
sS'importance_type'
p413
S'split'
p414
sg388
g389
sg369
F1.0
sS'silent'
p415
I01
sg371
I200000
sS'_other_params'
p416
(dp417
sg381
I20
sS'_n_features'
p418
I5
sS'_best_score'
p419
g354
sg374
F0.001
sg375
F0.0
sg373
F0.1
sg376
F1.0
sg377
F0.0
sg372
NsS'_le'
p420
g0
(csklearn.preprocessing.label
LabelEncoder
p421
g2
Ntp422
Rp423
(dp424
S'classes_'
p425
g402
sS'_sklearn_version'
p426
S'0.20.3'
p427
sbsg379
NsS'_best_iteration'
p428
I41
sS'class_weight'
p429
Nsg382
I-1
sb.