ccopy_reg
_reconstructor
p0
(csklearn.linear_model.base
LinearRegression
p1
c__builtin__
object
p2
Ntp3
Rp4
(dp5
S'normalize'
p6
I00
sS'n_jobs'
p7
NsS'rank_'
p8
I5
sS'fit_intercept'
p9
I01
sS'_residues'
p10
cnumpy.core.multiarray
scalar
p11
(cnumpy
dtype
p12
(S'f4'
p13
I0
I1
tp14
Rp15
(I3
S'<'
p16
NNNI-1
I-1
I0
tp17
bS'*G\xdbF'
p18
tp19
Rp20
sS'coef_'
p21
cnumpy.core.multiarray
_reconstruct
p22
(cnumpy
ndarray
p23
(I0
tp24
S'b'
p25
tp26
Rp27
(I1
(I5
tp28
g15
I00
S'\xe4\x9a!\xbd3\x98\x93\xbe]\xf3\xa1>\x90\x99\x0e\xbb\x80\xf0\x8a\xbb'
p29
tp30
bsS'_sklearn_version'
p31
S'0.20.3'
p32
sS'copy_X'
p33
I01
sS'intercept_'
p34
g11
(g15
S'\xe27\n?'
p35
tp36
Rp37
sS'singular_'
p38
g22
(g23
(I0
tp39
g25
tp40
Rp41
(I1
(I5
tp42
g15
I00
S'\xaf\x8cVD\xe7N\xa5B\xeaM\x14B)\x03\x95A\xf3\x02\xdf@'
p43
tp44
bsb.